--- !tapi-tbd
tbd-version:     4
targets:         [ x86_64-macos, arm64-macos ]
flags:           [ not_app_extension_safe ]
install-name:    '@rpath/libsentry.dylib'
current-version: 0
compatibility-version: 0
exports:
  - targets:         [ x86_64-macos ]
    symbols:         [ __ZN4base13StringAppendVEPNSt3__112basic_stringIcNS0_11char_traitsIcEENS0_9allocatorIcEEEEPKcP13__va_list_tag ]
    weak-symbols:    [ __ZN4base9vsnprintfEPcmPKcP13__va_list_tag, __ZTIN8crashpad12NotifyServer9InterfaceE, 
                       __ZTIN8crashpad14PruneConditionE, __ZTIN8crashpad15ChildPortServer9InterfaceE, 
                       __ZTIN8crashpad17MachMessageServer9InterfaceE, __ZTIN8crashpad19CrashReportDatabase6ReportE, 
                       __ZTIN8crashpad19CrashReportDatabaseE, __ZTIN8crashpad19FileReaderInterfaceE, 
                       __ZTIN8crashpad19FileSeekerInterfaceE, __ZTIN8crashpad19FileWriterInterfaceE, 
                       __ZTIN8crashpad22CrashReportDatabaseMac15UploadReportMacE, 
                       __ZTIN8crashpad8internal16WriteAllInternalE, __ZTIN8crashpad8internal19ReadExactlyInternalE, 
                       __ZTSN8crashpad12NotifyServer9InterfaceE, __ZTSN8crashpad14PruneConditionE, 
                       __ZTSN8crashpad15ChildPortServer9InterfaceE, __ZTSN8crashpad17MachMessageServer9InterfaceE, 
                       __ZTSN8crashpad19CrashReportDatabase6ReportE, __ZTSN8crashpad19CrashReportDatabaseE, 
                       __ZTSN8crashpad19FileReaderInterfaceE, __ZTSN8crashpad19FileSeekerInterfaceE, 
                       __ZTSN8crashpad19FileWriterInterfaceE, __ZTSN8crashpad22CrashReportDatabaseMac15UploadReportMacE, 
                       __ZTSN8crashpad8internal16WriteAllInternalE, __ZTSN8crashpad8internal19ReadExactlyInternalE ]
  - targets:         [ x86_64-macos, arm64-macos ]
    symbols:         [ __Z7PrintToRKN4base8FilePathEPNSt3__113basic_ostreamIcNS3_11char_traitsIcEEEE, 
                       __ZN4base10RandDoubleEv, __ZN4base10RandUint64Ev, __ZN4base10ReadFromFDEiPcm, 
                       __ZN4base11StringToIntERKNS_16BasicStringPieceINSt3__112basic_stringIcNS1_11char_traitsIcEENS1_9allocatorIcEEEEEEPi, 
                       __ZN4base11UTF16ToUTF8EPKDsmPNSt3__112basic_stringIcNS2_11char_traitsIcEENS2_9allocatorIcEEEE, 
                       __ZN4base11UTF16ToUTF8ERKNS_16BasicStringPieceINSt3__112basic_stringIDsNS1_11char_traitsIDsEENS1_9allocatorIDsEEEEEE, 
                       __ZN4base11UTF8ToUTF16EPKcmPNSt3__112basic_stringIDsNS2_11char_traitsIDsEENS2_9allocatorIDsEEEE, 
                       __ZN4base11UTF8ToUTF16ERKNS_16BasicStringPieceINSt3__112basic_stringIcNS1_11char_traitsIcEENS1_9allocatorIcEEEEEE, 
                       __ZN4base12StringPrintfEPKcz, __ZN4base12StringToUintERKNS_16BasicStringPieceINSt3__112basic_stringIcNS1_11char_traitsIcEENS1_9allocatorIcEEEEEEPj, 
                       __ZN4base13RandGeneratorEy, __ZN4base13StringToInt64ERKNS_16BasicStringPieceINSt3__112basic_stringIcNS1_11char_traitsIcEENS1_9allocatorIcEEEEEEPx, 
                       __ZN4base13StringToSizeTERKNS_16BasicStringPieceINSt3__112basic_stringIcNS1_11char_traitsIcEENS1_9allocatorIcEEEEEEPm, 
                       __ZN4base13safe_strerrorEi, __ZN4base14HexStringToIntERKNS_16BasicStringPieceINSt3__112basic_stringIcNS1_11char_traitsIcEENS1_9allocatorIcEEEEEEPi, 
                       __ZN4base14StringToUint64ERKNS_16BasicStringPieceINSt3__112basic_stringIcNS1_11char_traitsIcEENS1_9allocatorIcEEEEEEPy, 
                       __ZN4base15safe_strerror_rEiPcm, __ZN4base16HexStringToBytesERKNSt3__112basic_stringIcNS0_11char_traitsIcEENS0_9allocatorIcEEEEPNS0_6vectorIhNS4_IhEEEE, 
                       __ZN4base17RandBytesAsStringEm, __ZN4base17SysNSStringToUTF8EP8NSString, 
                       __ZN4base17SysUTF8ToNSStringERKNSt3__112basic_stringIcNS0_11char_traitsIcEENS0_9allocatorIcEEEE, 
                       __ZN4base18UmaHistogramSparseERKNSt3__112basic_stringIcNS0_11char_traitsIcEENS0_9allocatorIcEEEEi, 
                       __ZN4base20ReadUnicodeCharacterEPKDsiPiPj, __ZN4base20ReadUnicodeCharacterEPKciPiPj, 
                       __ZN4base20SysCFStringRefToUTF8EPK10__CFString, __ZN4base20SysUTF8ToCFStringRefERKNSt3__112basic_stringIcNS0_11char_traitsIcEENS0_9allocatorIcEEEE, 
                       __ZN4base21WriteUnicodeCharacterEjPNSt3__112basic_stringIDsNS0_11char_traitsIDsEENS0_9allocatorIDsEEEE, 
                       __ZN4base21WriteUnicodeCharacterEjPNSt3__112basic_stringIcNS0_11char_traitsIcEENS0_9allocatorIcEEEE, 
                       __ZN4base3mac10CFToNSCastEP10__CFString, __ZN4base3mac10CFToNSCastEP12__CFCalendar, 
                       __ZN4base3mac10CFToNSCastEP14__CFDictionary, __ZN4base3mac10CFToNSCastEP14__CFReadStream, 
                       __ZN4base3mac10CFToNSCastEP15__CFWriteStream, __ZN4base3mac10CFToNSCastEP16__CFCharacterSet, 
                       __ZN4base3mac10CFToNSCastEP16__CFRunLoopTimer, __ZN4base3mac10CFToNSCastEP20__CFAttributedString, 
                       __ZN4base3mac10CFToNSCastEP7__CFSet, __ZN4base3mac10CFToNSCastEP8__CFData, 
                       __ZN4base3mac10CFToNSCastEP9__CFArray, __ZN4base3mac10CFToNSCastEP9__CFError, 
                       __ZN4base3mac10CFToNSCastEPK10__CFLocale, __ZN4base3mac10CFToNSCastEPK10__CFNumber, 
                       __ZN4base3mac10CFToNSCastEPK10__CFString, __ZN4base3mac10CFToNSCastEPK12__CFTimeZone, 
                       __ZN4base3mac10CFToNSCastEPK14__CFDictionary, __ZN4base3mac10CFToNSCastEPK16__CFCharacterSet, 
                       __ZN4base3mac10CFToNSCastEPK20__CFAttributedString, __ZN4base3mac10CFToNSCastEPK7__CFSet, 
                       __ZN4base3mac10CFToNSCastEPK7__CFURL, __ZN4base3mac10CFToNSCastEPK8__CFData, 
                       __ZN4base3mac10CFToNSCastEPK8__CFDate, __ZN4base3mac10CFToNSCastEPK9__CFArray, 
                       __ZN4base3mac10NSToCFCastEP10NSCalendar, __ZN4base3mac10NSToCFCastEP10NSTimeZone, 
                       __ZN4base3mac10NSToCFCastEP12NSDictionary, __ZN4base3mac10NSToCFCastEP12NSMutableSet, 
                       __ZN4base3mac10NSToCFCastEP13NSInputStream, __ZN4base3mac10NSToCFCastEP13NSMutableData, 
                       __ZN4base3mac10NSToCFCastEP14NSCharacterSet, __ZN4base3mac10NSToCFCastEP14NSMutableArray, 
                       __ZN4base3mac10NSToCFCastEP14NSOutputStream, __ZN4base3mac10NSToCFCastEP15NSMutableString, 
                       __ZN4base3mac10NSToCFCastEP18NSAttributedString, __ZN4base3mac10NSToCFCastEP19NSMutableDictionary, 
                       __ZN4base3mac10NSToCFCastEP21NSMutableCharacterSet, __ZN4base3mac10NSToCFCastEP25NSMutableAttributedString, 
                       __ZN4base3mac10NSToCFCastEP5NSSet, __ZN4base3mac10NSToCFCastEP5NSURL, 
                       __ZN4base3mac10NSToCFCastEP6NSData, __ZN4base3mac10NSToCFCastEP6NSDate, 
                       __ZN4base3mac10NSToCFCastEP7NSArray, __ZN4base3mac10NSToCFCastEP7NSError, 
                       __ZN4base3mac10NSToCFCastEP7NSTimer, __ZN4base3mac10NSToCFCastEP8NSLocale, 
                       __ZN4base3mac10NSToCFCastEP8NSNumber, __ZN4base3mac10NSToCFCastEP8NSString, 
                       __ZN4base3mac12CFCastStrictIP23__SecTrustedApplicationEET_RKPKv, 
                       __ZN4base3mac12CFCastStrictIP7CGColorEET_RKPKv, __ZN4base3mac12CFCastStrictIP8__SecACLEET_RKPKv, 
                       __ZN4base3mac12CFCastStrictIPK10__CFNumberEET_RKPKv, __ZN4base3mac12CFCastStrictIPK10__CFStringEET_RKPKv, 
                       __ZN4base3mac12CFCastStrictIPK11__CFBooleanEET_RKPKv, __ZN4base3mac12CFCastStrictIPK14__CFDictionaryEET_RKPKv, 
                       __ZN4base3mac12CFCastStrictIPK7__CFBagEET_RKPKv, __ZN4base3mac12CFCastStrictIPK7__CFSetEET_RKPKv, 
                       __ZN4base3mac12CFCastStrictIPK7__CFURLEET_RKPKv, __ZN4base3mac12CFCastStrictIPK7__CTRunEET_RKPKv, 
                       __ZN4base3mac12CFCastStrictIPK8__CFDataEET_RKPKv, __ZN4base3mac12CFCastStrictIPK8__CFDateEET_RKPKv, 
                       __ZN4base3mac12CFCastStrictIPK8__CFNullEET_RKPKv, __ZN4base3mac12CFCastStrictIPK8__CFUUIDEET_RKPKv, 
                       __ZN4base3mac12CFCastStrictIPK8__CTFontEET_RKPKv, __ZN4base3mac12CFCastStrictIPK9__CFArrayEET_RKPKv, 
                       __ZN4base3mac12ScopedMachVM5resetEmm, __ZN4base3mac23ScopedNSAutoreleasePool7RecycleEv, 
                       __ZN4base3mac23ScopedNSAutoreleasePoolC1Ev, __ZN4base3mac23ScopedNSAutoreleasePoolC2Ev, 
                       __ZN4base3mac23ScopedNSAutoreleasePoolD1Ev, __ZN4base3mac23ScopedNSAutoreleasePoolD2Ev, 
                       __ZN4base3mac6CFCastIP23__SecTrustedApplicationEET_RKPKv, 
                       __ZN4base3mac6CFCastIP7CGColorEET_RKPKv, __ZN4base3mac6CFCastIP8__SecACLEET_RKPKv, 
                       __ZN4base3mac6CFCastIPK10__CFNumberEET_RKPKv, __ZN4base3mac6CFCastIPK10__CFStringEET_RKPKv, 
                       __ZN4base3mac6CFCastIPK11__CFBooleanEET_RKPKv, __ZN4base3mac6CFCastIPK14__CFDictionaryEET_RKPKv, 
                       __ZN4base3mac6CFCastIPK7__CFBagEET_RKPKv, __ZN4base3mac6CFCastIPK7__CFSetEET_RKPKv, 
                       __ZN4base3mac6CFCastIPK7__CFURLEET_RKPKv, __ZN4base3mac6CFCastIPK7__CTRunEET_RKPKv, 
                       __ZN4base3mac6CFCastIPK8__CFDataEET_RKPKv, __ZN4base3mac6CFCastIPK8__CFDateEET_RKPKv, 
                       __ZN4base3mac6CFCastIPK8__CFNullEET_RKPKv, __ZN4base3mac6CFCastIPK8__CFUUIDEET_RKPKv, 
                       __ZN4base3mac6CFCastIPK8__CTFontEET_RKPKv, __ZN4base3mac6CFCastIPK9__CFArrayEET_RKPKv, 
                       __ZN4base3mac8internal13PortSetTraits4FreeEj, __ZN4base3mac8internal15SendRightTraits4FreeEj, 
                       __ZN4base3mac8internal18ReceiveRightTraits4FreeEj, __ZN4base7RandIntEii, 
                       __ZN4base8FilePath11IsSeparatorEc, __ZN4base8FilePath11kSeparatorsE, 
                       __ZN4base8FilePath16kParentDirectoryE, __ZN4base8FilePath17kCurrentDirectoryE, 
                       __ZN4base8FilePath19kExtensionSeparatorE, __ZN4base8FilePath31StripTrailingSeparatorsInternalEv, 
                       __ZN4base8FilePathC1ERKNSt3__112basic_stringIcNS1_11char_traitsIcEENS1_9allocatorIcEEEE, 
                       __ZN4base8FilePathC1ERKS0_, __ZN4base8FilePathC1Ev, __ZN4base8FilePathC2ERKNSt3__112basic_stringIcNS1_11char_traitsIcEENS1_9allocatorIcEEEE, 
                       __ZN4base8FilePathC2ERKS0_, __ZN4base8FilePathC2Ev, __ZN4base8FilePathD1Ev, 
                       __ZN4base8FilePathD2Ev, __ZN4base8FilePathaSERKS0_, __ZN4base8internal19ScopedFDCloseTraits4FreeEi, 
                       __ZN4base9RandBytesEPvm, __ZN7logging10LogMessage4InitEPKc, 
                       __ZN7logging10LogMessageC1EPKcS2_iPNSt3__112basic_stringIcNS3_11char_traitsIcEENS3_9allocatorIcEEEE, 
                       __ZN7logging10LogMessageC1EPKcS2_ii, __ZN7logging10LogMessageC2EPKcS2_iPNSt3__112basic_stringIcNS3_11char_traitsIcEENS3_9allocatorIcEEEE, 
                       __ZN7logging10LogMessageC2EPKcS2_ii, __ZN7logging10LogMessageD1Ev, 
                       __ZN7logging10LogMessageD2Ev, __ZN7logging11InitLoggingERKNS_15LoggingSettingsE, 
                       __ZN7logging14MachLogMessageC1EPKcS2_iii, __ZN7logging14MachLogMessageC2EPKcS2_iii, 
                       __ZN7logging14MachLogMessageD1Ev, __ZN7logging14MachLogMessageD2Ev, 
                       __ZN7logging15ErrnoLogMessageC1EPKcS2_iii, __ZN7logging15ErrnoLogMessageC2EPKcS2_iii, 
                       __ZN7logging15ErrnoLogMessageD1Ev, __ZN7logging15ErrnoLogMessageD2Ev, 
                       __ZN7logging19BootstrapLogMessageC1EPKcS2_iii, __ZN7logging19BootstrapLogMessageC2EPKcS2_iii, 
                       __ZN7logging19BootstrapLogMessageD1Ev, __ZN7logging19BootstrapLogMessageD2Ev, 
                       __ZN7logging20GetLogMessageHandlerEv, __ZN7logging20SetLogMessageHandlerEPFbiPKcimRKNSt3__112basic_stringIcNS2_11char_traitsIcEENS2_9allocatorIcEEEEE, 
                       __ZN8base_icu21utf8_nextCharSafeBodyEPKhPiiia, __ZN8crashpad10ExcMaskAllEv, 
                       __ZN8crashpad10FileReader4OpenERKN4base8FilePathE, __ZN8crashpad10FileReader4ReadEPvm, 
                       __ZN8crashpad10FileReader4SeekExi, __ZN8crashpad10FileReader5CloseEv, 
                       __ZN8crashpad10FileReaderC1Ev, __ZN8crashpad10FileReaderC2Ev, 
                       __ZN8crashpad10FileReaderD0Ev, __ZN8crashpad10FileReaderD1Ev, 
                       __ZN8crashpad10FileReaderD2Ev, __ZN8crashpad10FileWriter10WriteIoVecEPNSt3__16vectorINS_13WritableIoVecENS1_9allocatorIS3_EEEE, 
                       __ZN8crashpad10FileWriter4OpenERKN4base8FilePathENS_13FileWriteModeENS_15FilePermissionsE, 
                       __ZN8crashpad10FileWriter4SeekExi, __ZN8crashpad10FileWriter5CloseEv, 
                       __ZN8crashpad10FileWriter5WriteEPKvm, __ZN8crashpad10FileWriterC1Ev, 
                       __ZN8crashpad10FileWriterC2Ev, __ZN8crashpad10FileWriterD0Ev, 
                       __ZN8crashpad10FileWriterD1Ev, __ZN8crashpad10FileWriterD2Ev, 
                       __ZN8crashpad10WriteXattrERKN4base8FilePathERKNS0_16BasicStringPieceINSt3__112basic_stringIcNS5_11char_traitsIcEENS5_9allocatorIcEEEEEERKSB_, 
                       __ZN8crashpad11GetFileSizeERKN4base8FilePathE, __ZN8crashpad11IsDirectoryERKN4base8FilePathEb, 
                       __ZN8crashpad11NewMachPortEj, __ZN8crashpad11RemoveXattrERKN4base8FilePathERKNS0_16BasicStringPieceINSt3__112basic_stringIcNS5_11char_traitsIcEENS5_9allocatorIcEEEEEE, 
                       __ZN8crashpad12CrashpadInfo15GetCrashpadInfoEv, __ZN8crashpad12CrashpadInfo25AddUserDataMinidumpStreamEjPKvm, 
                       __ZN8crashpad12CrashpadInfoC1Ev, __ZN8crashpad12CrashpadInfoC2Ev, 
                       __ZN8crashpad12ExcMaskValidEv, __ZN8crashpad12NotifyServer16DefaultInterface20DoMachNotifyDeadNameEjjPK18mach_msg_trailer_t, 
                       __ZN8crashpad12NotifyServer16DefaultInterface20DoMachNotifySendOnceEjPK18mach_msg_trailer_t, 
                       __ZN8crashpad12NotifyServer16DefaultInterface21DoMachNotifyNoSendersEjjPK18mach_msg_trailer_t, 
                       __ZN8crashpad12NotifyServer16DefaultInterface23DoMachNotifyPortDeletedEjjPK18mach_msg_trailer_t, 
                       __ZN8crashpad12NotifyServer16DefaultInterface25DoMachNotifyPortDestroyedEjjPK18mach_msg_trailer_tPb, 
                       __ZN8crashpad12NotifyServer25MachMessageServerFunctionEPK17mach_msg_header_tPS1_Pb, 
                       __ZN8crashpad12NotifyServer26MachMessageServerReplySizeEv, 
                       __ZN8crashpad12NotifyServer27MachMessageServerRequestIDsEv, 
                       __ZN8crashpad12NotifyServer28MachMessageServerRequestSizeEv, 
                       __ZN8crashpad12NotifyServerC1EPNS0_9InterfaceE, __ZN8crashpad12NotifyServerC2EPNS0_9InterfaceE, 
                       __ZN8crashpad12RandomStringEv, __ZN8crashpad12ReadXattrIntERKN4base8FilePathERKNS0_16BasicStringPieceINSt3__112basic_stringIcNS5_11char_traitsIcEENS5_9allocatorIcEEEEEEPi, 
                       __ZN8crashpad13IsRegularFileERKN4base8FilePathE, __ZN8crashpad13ReadXattrBoolERKN4base8FilePathERKNS0_16BasicStringPieceINSt3__112basic_stringIcNS5_11char_traitsIcEENS5_9allocatorIcEEEEEEPb, 
                       __ZN8crashpad13WriteXattrIntERKN4base8FilePathERKNS0_16BasicStringPieceINSt3__112basic_stringIcNS5_11char_traitsIcEENS5_9allocatorIcEEEEEEi, 
                       __ZN8crashpad14CrashpadClient12StartHandlerERKN4base8FilePathES4_S4_RKNSt3__112basic_stringIcNS5_11char_traitsIcEENS5_9allocatorIcEEEESD_RKNS5_3mapISB_SB_NS5_4lessISB_EENS9_INS5_4pairISC_SB_EEEEEERKNS5_6vectorISB_NS9_ISB_EEEEbbRKNSN_IS2_NS9_IS2_EEEE, 
                       __ZN8crashpad14CrashpadClient18SetHandlerMachPortEN4base13ScopedGenericIjNS1_3mac8internal15SendRightTraitsEEE, 
                       __ZN8crashpad14CrashpadClient21SetHandlerMachServiceERKNSt3__112basic_stringIcNS1_11char_traitsIcEENS1_9allocatorIcEEEE, 
                       __ZN8crashpad14CrashpadClient23UseSystemDefaultHandlerEv, 
                       __ZN8crashpad14CrashpadClientC1Ev, __ZN8crashpad14CrashpadClientC2Ev, 
                       __ZN8crashpad14CrashpadClientD1Ev, __ZN8crashpad14CrashpadClientD2Ev, 
                       __ZN8crashpad14ExceptionPorts22ExceptionHandlerVector10DeallocateEv, 
                       __ZN8crashpad14ExceptionPorts22ExceptionHandlerVector5clearEv, 
                       __ZN8crashpad14ExceptionPorts22ExceptionHandlerVectorC1Ev, 
                       __ZN8crashpad14ExceptionPorts22ExceptionHandlerVectorC2Ev, 
                       __ZN8crashpad14ExceptionPorts22ExceptionHandlerVectorD1Ev, 
                       __ZN8crashpad14ExceptionPorts22ExceptionHandlerVectorD2Ev, 
                       __ZN8crashpad14ExceptionPortsC1ENS0_10TargetTypeEj, __ZN8crashpad14ExceptionPortsC2ENS0_10TargetTypeEj, 
                       __ZN8crashpad14ExceptionPortsD1Ev, __ZN8crashpad14ExceptionPortsD2Ev, 
                       __ZN8crashpad14MachThreadSelfEv, __ZN8crashpad14PruneCondition10GetDefaultEv, 
                       __ZN8crashpad14ReadXattrTimeTERKN4base8FilePathERKNS0_16BasicStringPieceINSt3__112basic_stringIcNS5_11char_traitsIcEENS5_9allocatorIcEEEEEEPl, 
                       __ZN8crashpad14WriteXattrBoolERKN4base8FilePathERKNS0_16BasicStringPieceINSt3__112basic_stringIcNS5_11char_traitsIcEENS5_9allocatorIcEEEEEEb, 
                       __ZN8crashpad15BootstrapLookUpERKNSt3__112basic_stringIcNS0_11char_traitsIcEENS0_9allocatorIcEEEE, 
                       __ZN8crashpad15ChildPortServer25MachMessageServerFunctionEPK17mach_msg_header_tPS1_Pb, 
                       __ZN8crashpad15ChildPortServer26MachMessageServerReplySizeEv, 
                       __ZN8crashpad15ChildPortServer27MachMessageServerRequestIDsEv, 
                       __ZN8crashpad15ChildPortServer28MachMessageServerRequestSizeEv, 
                       __ZN8crashpad15ChildPortServerC1EPNS0_9InterfaceE, __ZN8crashpad15ChildPortServerC2EPNS0_9InterfaceE, 
                       __ZN8crashpad15DirectoryReader11DirectoryFDEv, __ZN8crashpad15DirectoryReader4OpenERKN4base8FilePathE, 
                       __ZN8crashpad15DirectoryReader8NextFileEPN4base8FilePathE, 
                       __ZN8crashpad15DirectoryReaderC1Ev, __ZN8crashpad15DirectoryReaderC2Ev, 
                       __ZN8crashpad15DirectoryReaderD1Ev, __ZN8crashpad15DirectoryReaderD2Ev, 
                       __ZN8crashpad15LoggingLockFileEiNS_11FileLockingENS_19FileLockingBlockingE, 
                       __ZN8crashpad15LoggingSeekFileEixi, __ZN8crashpad15OpenFileForReadERKN4base8FilePathE, 
                       __ZN8crashpad15ReadFileExactlyEiPvm, __ZN8crashpad15SpawnSubprocessERKNSt3__16vectorINS0_12basic_stringIcNS0_11char_traitsIcEENS0_9allocatorIcEEEENS5_IS7_EEEEPSA_ibPFvvE, 
                       __ZN8crashpad15StdioFileHandleENS_11StdioStreamE, __ZN8crashpad15WriteXattrTimeTERKN4base8FilePathERKNS0_16BasicStringPieceINSt3__112basic_stringIcNS5_11char_traitsIcEENS5_9allocatorIcEEEEEEl, 
                       __ZN8crashpad16BootstrapCheckInERKNSt3__112basic_stringIcNS0_11char_traitsIcEENS0_9allocatorIcEEEE, 
                       __ZN8crashpad16CheckedCloseFileEi, __ZN8crashpad16CheckedWriteFileEiPKvm, 
                       __ZN8crashpad16GetDirectorySizeERKN4base8FilePathE, __ZN8crashpad16LoggingCloseFileEi, 
                       __ZN8crashpad16LoggingReadToEOFEiPNSt3__112basic_stringIcNS0_11char_traitsIcEENS0_9allocatorIcEEEE, 
                       __ZN8crashpad16LoggingWriteFileEiPKvm, __ZN8crashpad16OpenFileForWriteERKN4base8FilePathENS_13FileWriteModeENS_15FilePermissionsE, 
                       __ZN8crashpad16SetMIGReplyErrorEP17mach_msg_header_ti, __ZN8crashpad16SleepNanosecondsEy, 
                       __ZN8crashpad17AgePruneCondition17ShouldPruneReportERKNS_19CrashReportDatabase6ReportE, 
                       __ZN8crashpad17AgePruneConditionC1Ei, __ZN8crashpad17AgePruneConditionC2Ei, 
                       __ZN8crashpad17AgePruneConditionD0Ev, __ZN8crashpad17AgePruneConditionD1Ev, 
                       __ZN8crashpad17AgePruneConditionD2Ev, __ZN8crashpad17LoggingRemoveFileERKN4base8FilePathE, 
                       __ZN8crashpad17LoggingUnlockFileEi, __ZN8crashpad17MachMessageServer3RunEPNS0_9InterfaceEjiNS0_10PersistentENS0_12ReceiveLargeEj, 
                       __ZN8crashpad18ChildPortHandshake12ClientReadFDEv, __ZN8crashpad18ChildPortHandshake13ServerWriteFDEv, 
                       __ZN8crashpad18ChildPortHandshake14RunClientForFDEN4base13ScopedGenericIiNS1_8internal19ScopedFDCloseTraitsEEEjj, 
                       __ZN8crashpad18ChildPortHandshake14RunServerForFDEN4base13ScopedGenericIiNS1_8internal19ScopedFDCloseTraitsEEENS0_13PortRightTypeE, 
                       __ZN8crashpad18ChildPortHandshake26RunClientInternal_ReadPipeEiPyPNSt3__112basic_stringIcNS2_11char_traitsIcEENS2_9allocatorIcEEEE, 
                       __ZN8crashpad18ChildPortHandshake29RunClientInternal_SendCheckInERKNSt3__112basic_stringIcNS1_11char_traitsIcEENS1_9allocatorIcEEEEyjj, 
                       __ZN8crashpad18ChildPortHandshake9RunClientEjj, __ZN8crashpad18ChildPortHandshake9RunServerENS0_13PortRightTypeE, 
                       __ZN8crashpad18ChildPortHandshakeC1Ev, __ZN8crashpad18ChildPortHandshakeC2Ev, 
                       __ZN8crashpad18ChildPortHandshakeD1Ev, __ZN8crashpad18ChildPortHandshakeD2Ev, 
                       __ZN8crashpad18InitializeInternalERKN4base8FilePathEb, __ZN8crashpad19CrashReportDatabase10InitializeERKN4base8FilePathE, 
                       __ZN8crashpad19CrashReportDatabase12UploadReport10InitializeERKN4base8FilePathEPS0_, 
                       __ZN8crashpad19CrashReportDatabase12UploadReport21InitializeAttachmentsEv, 
                       __ZN8crashpad19CrashReportDatabase12UploadReportC1Ev, __ZN8crashpad19CrashReportDatabase12UploadReportC2Ev, 
                       __ZN8crashpad19CrashReportDatabase12UploadReportD0Ev, __ZN8crashpad19CrashReportDatabase12UploadReportD1Ev, 
                       __ZN8crashpad19CrashReportDatabase12UploadReportD2Ev, __ZN8crashpad19CrashReportDatabase15AttachmentsPathERKNS_4UUIDE, 
                       __ZN8crashpad19CrashReportDatabase19AttachmentsRootPathEv, 
                       __ZN8crashpad19CrashReportDatabase20RecordUploadCompleteENSt3__110unique_ptrIKNS0_12UploadReportENS1_14default_deleteIS4_EEEERKNS1_12basic_stringIcNS1_11char_traitsIcEENS1_9allocatorIcEEEE, 
                       __ZN8crashpad19CrashReportDatabase23RemoveAttachmentsByUUIDERKNS_4UUIDE, 
                       __ZN8crashpad19CrashReportDatabase25InitializeWithoutCreatingERKN4base8FilePathE, 
                       __ZN8crashpad19CrashReportDatabase6ReportC1Ev, __ZN8crashpad19CrashReportDatabase6ReportC2Ev, 
                       __ZN8crashpad19CrashReportDatabase9NewReport10InitializeEPS0_RKN4base8FilePathERKNSt3__112basic_stringIcNS7_11char_traitsIcEENS7_9allocatorIcEEEE, 
                       __ZN8crashpad19CrashReportDatabase9NewReport13AddAttachmentERKNSt3__112basic_stringIcNS2_11char_traitsIcEENS2_9allocatorIcEEEE, 
                       __ZN8crashpad19CrashReportDatabase9NewReport6ReaderEv, __ZN8crashpad19CrashReportDatabase9NewReportC1Ev, 
                       __ZN8crashpad19CrashReportDatabase9NewReportC2Ev, __ZN8crashpad19CrashReportDatabase9NewReportD1Ev, 
                       __ZN8crashpad19CrashReportDatabase9NewReportD2Ev, __ZN8crashpad19FileReaderInterface11ReadExactlyEPvm, 
                       __ZN8crashpad19LoggingTruncateFileEi, __ZN8crashpad19MoveFileOrDirectoryERKN4base8FilePathES3_, 
                       __ZN8crashpad20BinaryPruneCondition17ShouldPruneReportERKNS_19CrashReportDatabase6ReportE, 
                       __ZN8crashpad20BinaryPruneConditionC1ENS0_8OperatorEPNS_14PruneConditionES3_, 
                       __ZN8crashpad20BinaryPruneConditionC2ENS0_8OperatorEPNS_14PruneConditionES3_, 
                       __ZN8crashpad20BinaryPruneConditionD0Ev, __ZN8crashpad20BinaryPruneConditionD1Ev, 
                       __ZN8crashpad20BinaryPruneConditionD2Ev, __ZN8crashpad20CheckedReadFileAtEOFEi, 
                       __ZN8crashpad20FileModificationTimeERKN4base8FilePathEP8timespec, 
                       __ZN8crashpad21LoggingReadEntireFileERKN4base8FilePathEPNSt3__112basic_stringIcNS4_11char_traitsIcEENS4_9allocatorIcEEEE, 
                       __ZN8crashpad22CheckedReadFileExactlyEiPvm, __ZN8crashpad22CrashReportDatabaseMac10InitializeEb, 
                       __ZN8crashpad22CrashReportDatabaseMac11GetSettingsEv, __ZN8crashpad22CrashReportDatabaseMac12DatabasePathEv, 
                       __ZN8crashpad22CrashReportDatabaseMac12DeleteReportERKNS_4UUIDE, 
                       __ZN8crashpad22CrashReportDatabaseMac13CleanDatabaseEl, __ZN8crashpad22CrashReportDatabaseMac13RequestUploadERKNS_4UUIDE, 
                       __ZN8crashpad22CrashReportDatabaseMac16ObtainReportLockERKN4base8FilePathE, 
                       __ZN8crashpad22CrashReportDatabaseMac16SkipReportUploadERKNS_4UUIDENS_7Metrics18CrashSkippedReasonE, 
                       __ZN8crashpad22CrashReportDatabaseMac17GetPendingReportsEPNSt3__16vectorINS_19CrashReportDatabase6ReportENS1_9allocatorIS4_EEEE, 
                       __ZN8crashpad22CrashReportDatabaseMac17LocateCrashReportERKNS_4UUIDEh, 
                       __ZN8crashpad22CrashReportDatabaseMac17LookUpCrashReportERKNS_4UUIDEPNS_19CrashReportDatabase6ReportE, 
                       __ZN8crashpad22CrashReportDatabaseMac18ReportsInDirectoryERKN4base8FilePathEPNSt3__16vectorINS_19CrashReportDatabase6ReportENS5_9allocatorIS8_EEEE, 
                       __ZN8crashpad22CrashReportDatabaseMac19GetCompletedReportsEPNSt3__16vectorINS_19CrashReportDatabase6ReportENS1_9allocatorIS4_EEEE, 
                       __ZN8crashpad22CrashReportDatabaseMac19RecordUploadAttemptEPNS_19CrashReportDatabase12UploadReportEbRKNSt3__112basic_stringIcNS4_11char_traitsIcEENS4_9allocatorIcEEEE, 
                       __ZN8crashpad22CrashReportDatabaseMac21GetReportForUploadingERKNS_4UUIDEPNSt3__110unique_ptrIKNS_19CrashReportDatabase12UploadReportENS4_14default_deleteIS8_EEEEb, 
                       __ZN8crashpad22CrashReportDatabaseMac21PrepareNewCrashReportEPNSt3__110unique_ptrINS_19CrashReportDatabase9NewReportENS1_14default_deleteIS4_EEEE, 
                       __ZN8crashpad22CrashReportDatabaseMac24CleanOrphanedAttachmentsEv, 
                       __ZN8crashpad22CrashReportDatabaseMac24ReadReportMetadataLockedERKN4base8FilePathEPNS_19CrashReportDatabase6ReportE, 
                       __ZN8crashpad22CrashReportDatabaseMac25MarkReportCompletedLockedERKN4base8FilePathEPS2_, 
                       __ZN8crashpad22CrashReportDatabaseMac26FinishedWritingCrashReportENSt3__110unique_ptrINS_19CrashReportDatabase9NewReportENS1_14default_deleteIS4_EEEEPNS_4UUIDE, 
                       __ZN8crashpad22CrashReportDatabaseMac9XattrNameERKN4base16BasicStringPieceINSt3__112basic_stringIcNS3_11char_traitsIcEENS3_9allocatorIcEEEEEE, 
                       __ZN8crashpad22CrashReportDatabaseMacC1ERKN4base8FilePathE, 
                       __ZN8crashpad22CrashReportDatabaseMacC2ERKN4base8FilePathE, 
                       __ZN8crashpad22CrashReportDatabaseMacD0Ev, __ZN8crashpad22CrashReportDatabaseMacD1Ev, 
                       __ZN8crashpad22CrashReportDatabaseMacD2Ev, __ZN8crashpad22LoggingCreateDirectoryERKN4base8FilePathENS_15FilePermissionsEb, 
                       __ZN8crashpad22LoggingOpenFileForReadERKN4base8FilePathE, 
                       __ZN8crashpad22LoggingReadFileExactlyEiPvm, __ZN8crashpad22LoggingRemoveDirectoryERKN4base8FilePathE, 
                       __ZN8crashpad22ScopedRemoveFileTraits4FreeERKN4base8FilePathE, 
                       __ZN8crashpad23LoggingFileSizeByHandleEi, __ZN8crashpad23LoggingOpenFileForWriteERKN4base8FilePathENS_13FileWriteModeENS_15FilePermissionsE, 
                       __ZN8crashpad23MachMessageWithDeadlineEP17mach_msg_header_tijjyjb, 
                       __ZN8crashpad23OpenFileForReadAndWriteERKN4base8FilePathENS_13FileWriteModeENS_15FilePermissionsE, 
                       __ZN8crashpad24PruneCrashReportDatabaseEPNS_19CrashReportDatabaseEPNS_14PruneConditionE, 
                       __ZN8crashpad24WeakFileHandleFileReader4ReadEPvm, __ZN8crashpad24WeakFileHandleFileReader4SeekExi, 
                       __ZN8crashpad24WeakFileHandleFileReaderC1Ei, __ZN8crashpad24WeakFileHandleFileReaderC2Ei, 
                       __ZN8crashpad24WeakFileHandleFileReaderD0Ev, __ZN8crashpad24WeakFileHandleFileReaderD1Ev, 
                       __ZN8crashpad24WeakFileHandleFileReaderD2Ev, __ZN8crashpad24WeakFileHandleFileWriter10WriteIoVecEPNSt3__16vectorINS_13WritableIoVecENS1_9allocatorIS3_EEEE, 
                       __ZN8crashpad24WeakFileHandleFileWriter4SeekExi, __ZN8crashpad24WeakFileHandleFileWriter5WriteEPKvm, 
                       __ZN8crashpad24WeakFileHandleFileWriterC1Ei, __ZN8crashpad24WeakFileHandleFileWriterC2Ei, 
                       __ZN8crashpad24WeakFileHandleFileWriterD0Ev, __ZN8crashpad24WeakFileHandleFileWriterD1Ev, 
                       __ZN8crashpad24WeakFileHandleFileWriterD2Ev, __ZN8crashpad25ClockMonotonicNanosecondsEv, 
                       __ZN8crashpad25InitializationStateDcheck15SetInitializingEv, 
                       __ZN8crashpad25InitializationStateDcheck8SetValidEv, __ZN8crashpad26DatabaseSizePruneCondition17ShouldPruneReportERKNS_19CrashReportDatabase6ReportE, 
                       __ZN8crashpad26DatabaseSizePruneConditionC1Em, __ZN8crashpad26DatabaseSizePruneConditionC2Em, 
                       __ZN8crashpad26DatabaseSizePruneConditionD0Ev, __ZN8crashpad26DatabaseSizePruneConditionD1Ev, 
                       __ZN8crashpad26DatabaseSizePruneConditionD2Ev, __ZN8crashpad26PrepareMIGReplyFromRequestEPK17mach_msg_header_tPS0_, 
                       __ZN8crashpad26SystemCrashReporterHandlerEv, __ZN8crashpad28MachMessageTrailerFromHeaderEPK17mach_msg_header_t, 
                       __ZN8crashpad30AuditPIDFromMachMessageTrailerEPK18mach_msg_trailer_t, 
                       __ZN8crashpad30LoggingOpenFileForReadAndWriteERKN4base8FilePathENS_13FileWriteModeENS_15FilePermissionsE, 
                       __ZN8crashpad30MachMessageDeadlineFromTimeoutEj, __ZN8crashpad30MachMessageDestroyReceivedPortEjj, 
                       __ZN8crashpad4UUID16InitializeToZeroEv, __ZN8crashpad4UUID17InitializeWithNewEv, 
                       __ZN8crashpad4UUID19InitializeFromBytesEPKh, __ZN8crashpad4UUID20InitializeFromStringERKN4base16BasicStringPieceINSt3__112basic_stringIcNS3_11char_traitsIcEENS3_9allocatorIcEEEEEE, 
                       __ZN8crashpad7Metrics13ExceptionCodeEj, __ZN8crashpad7Metrics14HandlerCrashedEj, 
                       __ZN8crashpad7Metrics15CrashReportSizeEx, __ZN8crashpad7Metrics18CrashReportPendingENS0_19PendingReportReasonE, 
                       __ZN8crashpad7Metrics18CrashUploadSkippedENS0_18CrashSkippedReasonE, 
                       __ZN8crashpad7Metrics20CrashUploadAttemptedEb, __ZN8crashpad7Metrics20CrashUploadErrorCodeEi, 
                       __ZN8crashpad7Metrics20ExceptionEncounteredEv, __ZN8crashpad7Metrics22ExceptionCaptureResultENS0_13CaptureResultE, 
                       __ZN8crashpad7Metrics24HandlerLifetimeMilestoneENS0_17LifetimeMilestoneE, 
                       __ZN8crashpad8ReadFileEiPvm, __ZN8crashpad8Settings10InitializeERKN4base8FilePathE, 
                       __ZN8crashpad8Settings11GetClientIDEPNS_4UUIDE, __ZN8crashpad8Settings12ReadSettingsEiPNS0_4DataEb, 
                       __ZN8crashpad8Settings13WriteSettingsEiRKNS0_4DataE, __ZN8crashpad8Settings14OpenForReadingEv, 
                       __ZN8crashpad8Settings15RecoverSettingsEiPNS0_4DataE, __ZN8crashpad8Settings17GetUploadsEnabledEPb, 
                       __ZN8crashpad8Settings17SetUploadsEnabledEb, __ZN8crashpad8Settings18InitializeSettingsEi, 
                       __ZN8crashpad8Settings19OpenAndReadSettingsEPNS0_4DataE, __ZN8crashpad8Settings20GetHandleFromOptionsERKN4base8FilePathERKNS_8internal33MakeScopedLockedFileHandleOptionsE, 
                       __ZN8crashpad8Settings24GetLastUploadAttemptTimeEPl, __ZN8crashpad8Settings24OpenForReadingAndWritingENS_13FileWriteModeEb, 
                       __ZN8crashpad8Settings24SetLastUploadAttemptTimeEl, __ZN8crashpad8Settings26MakeScopedLockedFileHandleERKNS_8internal33MakeScopedLockedFileHandleOptionsENS_11FileLockingERKN4base8FilePathE, 
                       __ZN8crashpad8Settings29OpenForWritingAndReadSettingsEPNS0_4DataE, 
                       __ZN8crashpad8SettingsC1Ev, __ZN8crashpad8SettingsC2Ev, __ZN8crashpad8SettingsD1Ev, 
                       __ZN8crashpad8SettingsD2Ev, __ZN8crashpad8internal15NativeWriteFileEiPKvm, 
                       __ZN8crashpad8internal16WriteAllInternal8WriteAllEPKvm, __ZN8crashpad8internal19ReadExactlyInternal11ReadExactlyEPvmb, 
                       __ZN8crashpad8internal20ScopedDIRCloseTraits4FreeEP3DIR, __ZN8crashpad8internal28ScopedLockedFileHandleTraits4FreeEi, 
                       __ZN8crashpad9ReadXattrERKN4base8FilePathERKNS0_16BasicStringPieceINSt3__112basic_stringIcNS5_11char_traitsIcEENS5_9allocatorIcEEEEEEPSB_, 
                       __ZN8crashpad9WriteFileEiPKvm, __ZNK4base8FilePath10IsAbsoluteEv, 
                       __ZNK4base8FilePath14FinalExtensionEv, __ZNK4base8FilePath20RemoveFinalExtensionEv, 
                       __ZNK4base8FilePath6AppendERKNSt3__112basic_stringIcNS1_11char_traitsIcEENS1_9allocatorIcEEEE, 
                       __ZNK4base8FilePath6AppendERKS0_, __ZNK4base8FilePath7DirNameEv, 
                       __ZNK4base8FilePath8BaseNameEv, __ZNK4base8FilePatheqERKS0_, 
                       __ZNK4base8FilePathneERKS0_, __ZNK4base8internal16ScopedFILECloserclEP7__sFILE, 
                       __ZNK8crashpad14CrashpadClient18GetHandlerMachPortEv, __ZNK8crashpad14ExceptionPorts14TargetTypeNameEv, 
                       __ZNK8crashpad14ExceptionPorts16SetExceptionPortEjjii, __ZNK8crashpad14ExceptionPorts17GetExceptionPortsEjPNS0_22ExceptionHandlerVectorE, 
                       __ZNK8crashpad14ExceptionPorts18SwapExceptionPortsEjjiiPNS0_22ExceptionHandlerVectorE, 
                       __ZNK8crashpad4UUID8ToStringEv, __ZNK8crashpad4UUIDeqERKS0_, 
                       __ZNK8crashpad4UUIDltERKS0_, __ZStlsRNSt3__113basic_ostreamIcNS_11char_traitsIcEEEERKNS_12basic_stringIDsNS1_IDsEENS_9allocatorIDsEEEE, 
                       __ZTCN8crashpad10FileReaderE0_NS_19FileReaderInterfaceE, __ZTCN8crashpad10FileWriterE0_NS_19FileWriterInterfaceE, 
                       __ZTCN8crashpad24WeakFileHandleFileReaderE0_NS_19FileReaderInterfaceE, 
                       __ZTCN8crashpad24WeakFileHandleFileWriterE0_NS_19FileWriterInterfaceE, 
                       __ZTIN8crashpad10FileReaderE, __ZTIN8crashpad10FileWriterE, 
                       __ZTIN8crashpad12NotifyServer16DefaultInterfaceE, __ZTIN8crashpad12NotifyServerE, 
                       __ZTIN8crashpad15ChildPortServerE, __ZTIN8crashpad17AgePruneConditionE, 
                       __ZTIN8crashpad19CrashReportDatabase12UploadReportE, __ZTIN8crashpad20BinaryPruneConditionE, 
                       __ZTIN8crashpad22CrashReportDatabaseMacE, __ZTIN8crashpad24WeakFileHandleFileReaderE, 
                       __ZTIN8crashpad24WeakFileHandleFileWriterE, __ZTIN8crashpad26DatabaseSizePruneConditionE, 
                       __ZTSN8crashpad10FileReaderE, __ZTSN8crashpad10FileWriterE, 
                       __ZTSN8crashpad12NotifyServer16DefaultInterfaceE, __ZTSN8crashpad12NotifyServerE, 
                       __ZTSN8crashpad15ChildPortServerE, __ZTSN8crashpad17AgePruneConditionE, 
                       __ZTSN8crashpad19CrashReportDatabase12UploadReportE, __ZTSN8crashpad20BinaryPruneConditionE, 
                       __ZTSN8crashpad22CrashReportDatabaseMacE, __ZTSN8crashpad24WeakFileHandleFileReaderE, 
                       __ZTSN8crashpad24WeakFileHandleFileWriterE, __ZTSN8crashpad26DatabaseSizePruneConditionE, 
                       __ZTTN8crashpad10FileReaderE, __ZTTN8crashpad10FileWriterE, 
                       __ZTTN8crashpad24WeakFileHandleFileReaderE, __ZTTN8crashpad24WeakFileHandleFileWriterE, 
                       __ZTVN8crashpad10FileReaderE, __ZTVN8crashpad10FileWriterE, 
                       __ZTVN8crashpad12NotifyServer16DefaultInterfaceE, __ZTVN8crashpad12NotifyServerE, 
                       __ZTVN8crashpad15ChildPortServerE, __ZTVN8crashpad17AgePruneConditionE, 
                       __ZTVN8crashpad19CrashReportDatabase12UploadReportE, __ZTVN8crashpad20BinaryPruneConditionE, 
                       __ZTVN8crashpad22CrashReportDatabaseMacE, __ZTVN8crashpad24WeakFileHandleFileReaderE, 
                       __ZTVN8crashpad24WeakFileHandleFileWriterE, __ZTVN8crashpad26DatabaseSizePruneConditionE, 
                       __ZTv0_n24_N8crashpad10FileReader4SeekExi, __ZTv0_n24_N8crashpad10FileWriter4SeekExi, 
                       __ZTv0_n24_N8crashpad24WeakFileHandleFileReader4SeekExi, __ZTv0_n24_N8crashpad24WeakFileHandleFileWriter4SeekExi, 
                       ___MIG_check__Request__child_port_check_in_t, ___MIG_check__Request__mach_notify_dead_name_t, 
                       ___MIG_check__Request__mach_notify_no_senders_t, ___MIG_check__Request__mach_notify_port_deleted_t, 
                       ___MIG_check__Request__mach_notify_port_destroyed_t, ___MIG_check__Request__mach_notify_send_once_t, 
                       _child_port_check_in, _child_port_server, _child_port_server_routine, 
                       _close, _do_notify_subsystem, _handle_child_port_subsystem, 
                       _notify_server, _notify_server_routine, _sentry__backend_new, 
                       _sentry_add_breadcrumb, _sentry_capture_event, _sentry_clear_crashed_last_run, 
                       _sentry_clear_modulecache, _sentry_close, _sentry_end_session, 
                       _sentry_end_session_with_status, _sentry_envelope_free, _sentry_envelope_get_event, 
                       _sentry_envelope_get_transaction, _sentry_envelope_serialize, 
                       _sentry_envelope_write_to_file, _sentry_envelope_write_to_file_n, 
                       _sentry_event_add_exception, _sentry_event_add_thread, _sentry_event_value_add_stacktrace, 
                       _sentry_flush, _sentry_free, _sentry_get_crashed_last_run, 
                       _sentry_get_modules_list, _sentry_handle_exception, _sentry_init, 
                       _sentry_malloc, _sentry_new_function_transport, _sentry_options_add_attachment, 
                       _sentry_options_add_attachment_n, _sentry_options_free, _sentry_options_get_auto_session_tracking, 
                       _sentry_options_get_ca_certs, _sentry_options_get_debug, _sentry_options_get_dist, 
                       _sentry_options_get_dsn, _sentry_options_get_environment, 
                       _sentry_options_get_http_proxy, _sentry_options_get_max_breadcrumbs, 
                       _sentry_options_get_max_spans, _sentry_options_get_release, 
                       _sentry_options_get_require_user_consent, _sentry_options_get_sample_rate, 
                       _sentry_options_get_sdk_name, _sentry_options_get_shutdown_timeout, 
                       _sentry_options_get_symbolize_stacktraces, _sentry_options_get_traces_sample_rate, 
                       _sentry_options_get_transport_thread_name, _sentry_options_get_user_agent, 
                       _sentry_options_new, _sentry_options_set_auto_session_tracking, 
                       _sentry_options_set_backend, _sentry_options_set_before_send, 
                       _sentry_options_set_ca_certs, _sentry_options_set_ca_certs_n, 
                       _sentry_options_set_database_path, _sentry_options_set_database_path_n, 
                       _sentry_options_set_debug, _sentry_options_set_dist, _sentry_options_set_dist_n, 
                       _sentry_options_set_dsn, _sentry_options_set_dsn_n, _sentry_options_set_environment, 
                       _sentry_options_set_environment_n, _sentry_options_set_handler_path, 
                       _sentry_options_set_handler_path_n, _sentry_options_set_http_proxy, 
                       _sentry_options_set_http_proxy_n, _sentry_options_set_logger, 
                       _sentry_options_set_max_breadcrumbs, _sentry_options_set_max_spans, 
                       _sentry_options_set_on_crash, _sentry_options_set_release, 
                       _sentry_options_set_release_n, _sentry_options_set_require_user_consent, 
                       _sentry_options_set_sample_rate, _sentry_options_set_sdk_name, 
                       _sentry_options_set_sdk_name_n, _sentry_options_set_shutdown_timeout, 
                       _sentry_options_set_symbolize_stacktraces, _sentry_options_set_system_crash_reporter_enabled, 
                       _sentry_options_set_traces_sample_rate, _sentry_options_set_transport, 
                       _sentry_options_set_transport_thread_name, _sentry_options_set_transport_thread_name_n, 
                       _sentry_reinstall_backend, _sentry_remove_context, _sentry_remove_context_n, 
                       _sentry_remove_extra, _sentry_remove_extra_n, _sentry_remove_fingerprint, 
                       _sentry_remove_tag, _sentry_remove_tag_n, _sentry_remove_user, 
                       _sentry_sdk_name, _sentry_sdk_user_agent, _sentry_sdk_version, 
                       _sentry_set_context, _sentry_set_context_n, _sentry_set_extra, 
                       _sentry_set_extra_n, _sentry_set_fingerprint, _sentry_set_fingerprint_n, 
                       _sentry_set_level, _sentry_set_span, _sentry_set_tag, _sentry_set_tag_n, 
                       _sentry_set_transaction, _sentry_set_transaction_n, _sentry_set_transaction_object, 
                       _sentry_set_user, _sentry_shutdown, _sentry_span_finish, _sentry_span_iter_headers, 
                       _sentry_span_remove_data, _sentry_span_remove_data_n, _sentry_span_remove_tag, 
                       _sentry_span_remove_tag_n, _sentry_span_set_data, _sentry_span_set_data_n, 
                       _sentry_span_set_status, _sentry_span_set_tag, _sentry_span_set_tag_n, 
                       _sentry_span_start_child, _sentry_span_start_child_n, _sentry_start_session, 
                       _sentry_transaction_context_new, _sentry_transaction_context_new_n, 
                       _sentry_transaction_context_remove_sampled, _sentry_transaction_context_set_name, 
                       _sentry_transaction_context_set_name_n, _sentry_transaction_context_set_operation, 
                       _sentry_transaction_context_set_operation_n, _sentry_transaction_context_set_sampled, 
                       _sentry_transaction_context_update_from_header, _sentry_transaction_context_update_from_header_n, 
                       _sentry_transaction_finish, _sentry_transaction_iter_headers, 
                       _sentry_transaction_remove_data, _sentry_transaction_remove_data_n, 
                       _sentry_transaction_remove_tag, _sentry_transaction_remove_tag_n, 
                       _sentry_transaction_set_data, _sentry_transaction_set_data_n, 
                       _sentry_transaction_set_name, _sentry_transaction_set_name_n, 
                       _sentry_transaction_set_status, _sentry_transaction_set_tag, 
                       _sentry_transaction_set_tag_n, _sentry_transaction_start, 
                       _sentry_transaction_start_child, _sentry_transaction_start_child_n, 
                       _sentry_transport_free, _sentry_transport_new, _sentry_transport_set_flush_func, 
                       _sentry_transport_set_free_func, _sentry_transport_set_shutdown_func, 
                       _sentry_transport_set_startup_func, _sentry_transport_set_state, 
                       _sentry_unwind_stack, _sentry_unwind_stack_from_ucontext, 
                       _sentry_user_consent_get, _sentry_user_consent_give, _sentry_user_consent_reset, 
                       _sentry_user_consent_revoke, _sentry_uuid_as_bytes, _sentry_uuid_as_string, 
                       _sentry_uuid_from_bytes, _sentry_uuid_from_string, _sentry_uuid_from_string_n, 
                       _sentry_uuid_is_nil, _sentry_uuid_new_v4, _sentry_uuid_nil, 
                       _sentry_value_append, _sentry_value_as_double, _sentry_value_as_int32, 
                       _sentry_value_as_string, _sentry_value_decref, _sentry_value_freeze, 
                       _sentry_value_get_by_index, _sentry_value_get_by_index_owned, 
                       _sentry_value_get_by_key, _sentry_value_get_by_key_n, _sentry_value_get_by_key_owned, 
                       _sentry_value_get_by_key_owned_n, _sentry_value_get_length, 
                       _sentry_value_get_type, _sentry_value_incref, _sentry_value_is_frozen, 
                       _sentry_value_is_null, _sentry_value_is_true, _sentry_value_new_bool, 
                       _sentry_value_new_breadcrumb, _sentry_value_new_breadcrumb_n, 
                       _sentry_value_new_double, _sentry_value_new_event, _sentry_value_new_exception, 
                       _sentry_value_new_exception_n, _sentry_value_new_int32, _sentry_value_new_list, 
                       _sentry_value_new_message_event, _sentry_value_new_message_event_n, 
                       _sentry_value_new_null, _sentry_value_new_object, _sentry_value_new_stacktrace, 
                       _sentry_value_new_string, _sentry_value_new_string_n, _sentry_value_new_thread, 
                       _sentry_value_new_thread_n, _sentry_value_refcount, _sentry_value_remove_by_index, 
                       _sentry_value_remove_by_key, _sentry_value_remove_by_key_n, 
                       _sentry_value_set_by_index, _sentry_value_set_by_key, _sentry_value_set_by_key_n, 
                       _sentry_value_set_stacktrace, _sentry_value_to_json, _sentry_value_to_msgpack ]
    weak-symbols:    [ __Z7isalnumi, __Z7isasciii, __Z7isspacei, __Z8__istypeim, 
                       __ZN4base11NetToHost16Et, __ZN4base11NetToHost32Ej, __ZN4base13ScopedGenericINS_8FilePathEN8crashpad22ScopedRemoveFileTraitsEE10get_traitsEv, 
                       __ZN4base13ScopedGenericINS_8FilePathEN8crashpad22ScopedRemoveFileTraitsEE15FreeIfNecessaryEv, 
                       __ZN4base13ScopedGenericINS_8FilePathEN8crashpad22ScopedRemoveFileTraitsEE5resetERKS1_, 
                       __ZN4base13ScopedGenericINS_8FilePathEN8crashpad22ScopedRemoveFileTraitsEE7releaseEv, 
                       __ZN4base13ScopedGenericIP3DIRN8crashpad8internal20ScopedDIRCloseTraitsEE15FreeIfNecessaryEv, 
                       __ZN4base13ScopedGenericIP3DIRN8crashpad8internal20ScopedDIRCloseTraitsEE5resetERKS2_, 
                       __ZN4base13ScopedGenericIiN8crashpad8internal28ScopedLockedFileHandleTraitsEE10get_traitsEv, 
                       __ZN4base13ScopedGenericIiN8crashpad8internal28ScopedLockedFileHandleTraitsEE15FreeIfNecessaryEv, 
                       __ZN4base13ScopedGenericIiN8crashpad8internal28ScopedLockedFileHandleTraitsEE5resetERKi, 
                       __ZN4base13ScopedGenericIiN8crashpad8internal28ScopedLockedFileHandleTraitsEE7releaseEv, 
                       __ZN4base13ScopedGenericIiN8crashpad8internal28ScopedLockedFileHandleTraitsEEaSEOS4_, 
                       __ZN4base13ScopedGenericIiNS_8internal19ScopedFDCloseTraitsEE10get_traitsEv, 
                       __ZN4base13ScopedGenericIiNS_8internal19ScopedFDCloseTraitsEE15FreeIfNecessaryEv, 
                       __ZN4base13ScopedGenericIiNS_8internal19ScopedFDCloseTraitsEE5resetERKi, 
                       __ZN4base13ScopedGenericIiNS_8internal19ScopedFDCloseTraitsEE7releaseEv, 
                       __ZN4base13ScopedGenericIjNS_3mac8internal13PortSetTraitsEE15FreeIfNecessaryEv, 
                       __ZN4base13ScopedGenericIjNS_3mac8internal15SendRightTraitsEE10get_traitsEv, 
                       __ZN4base13ScopedGenericIjNS_3mac8internal15SendRightTraitsEE15FreeIfNecessaryEv, 
                       __ZN4base13ScopedGenericIjNS_3mac8internal15SendRightTraitsEE4swapERS4_, 
                       __ZN4base13ScopedGenericIjNS_3mac8internal15SendRightTraitsEE5resetERKj, 
                       __ZN4base13ScopedGenericIjNS_3mac8internal15SendRightTraitsEE7releaseEv, 
                       __ZN4base13ScopedGenericIjNS_3mac8internal18ReceiveRightTraitsEE10get_traitsEv, 
                       __ZN4base13ScopedGenericIjNS_3mac8internal18ReceiveRightTraitsEE15FreeIfNecessaryEv, 
                       __ZN4base13ScopedGenericIjNS_3mac8internal18ReceiveRightTraitsEE5resetERKj, 
                       __ZN4base13ScopedGenericIjNS_3mac8internal18ReceiveRightTraitsEE7releaseEv, 
                       __ZN4base16IsValidCodepointEj, __ZN4base20PrepareForUTF8OutputIDsEEvPKT_mPNSt3__112basic_stringIcNS4_11char_traitsIcEENS4_9allocatorIcEEEE, 
                       __ZN4base20PrepareForUTF8OutputIwEEvPKT_mPNSt3__112basic_stringIcNS4_11char_traitsIcEENS4_9allocatorIcEEEE, 
                       __ZN4base25PrepareForUTF16Or32OutputINSt3__112basic_stringIDsNS1_11char_traitsIDsEENS1_9allocatorIDsEEEEEEvPKcmPT_, 
                       __ZN4base3mac8internal13PortSetTraits12InvalidValueEv, __ZN4base3mac8internal15SendRightTraits12InvalidValueEv, 
                       __ZN4base3mac8internal18ReceiveRightTraits12InvalidValueEv, 
                       __ZN4base4sizeIcLm1024EEEmRAT0__KT_, __ZN4base4sizeIcLm256EEEmRAT0__KT_, 
                       __ZN4base4sizeIcLm2EEEmRAT0__KT_, __ZN4base8ByteSwapEj, __ZN4base8ByteSwapEt, 
                       __ZN4base8internal11as_unsignedIxEENSt3__113make_unsignedINS0_14UnderlyingTypeIT_E4typeEE4typeES5_, 
                       __ZN4base8internal12checked_castIlNS0_14CheckOnFailureEmEET_T1_, 
                       __ZN4base8internal12checked_castIyNS0_14CheckOnFailureEmEET_T1_, 
                       __ZN4base8internal14CheckOnFailure13HandleFailureIlEET_v, 
                       __ZN4base8internal14CheckOnFailure13HandleFailureIyEET_v, 
                       __ZN4base8internal14CommonMaxOrMinIjxEET_b, __ZN4base8internal14CommonMaxOrMinIlxEET_b, 
                       __ZN4base8internal14NarrowingRangeIjxNS0_23SaturationDefaultLimitsEE3maxEv, 
                       __ZN4base8internal14NarrowingRangeIjxNS0_23SaturationDefaultLimitsEE6AdjustIjLPv0EEET_S6_, 
                       __ZN4base8internal14NarrowingRangeIlmNSt3__114numeric_limitsEE3maxEv, 
                       __ZN4base8internal14NarrowingRangeIlmNSt3__114numeric_limitsEE6AdjustIlLPv0EEET_S7_, 
                       __ZN4base8internal14SaturateFastOpIjxvE2DoEx, __ZN4base8internal14SaturateFastOpIlxvE2DoEx, 
                       __ZN4base8internal14saturated_castIjNS0_23SaturationDefaultLimitsExEET_T1_, 
                       __ZN4base8internal14saturated_castIlNS0_23SaturationDefaultLimitsExEET_T1_, 
                       __ZN4base8internal15IsValueNegativeIjLPv0EEEbT_, __ZN4base8internal15IsValueNegativeIlLPv0EEEbT_, 
                       __ZN4base8internal15IsValueNegativeIxLPv0EEEbT_, __ZN4base8internal15SafeUnsignedAbsIjEENSt3__113make_unsignedIT_E4typeES4_, 
                       __ZN4base8internal15SafeUnsignedAbsIlEENSt3__113make_unsignedIT_E4typeES4_, 
                       __ZN4base8internal17ConditionalNegateIjEENSt3__111make_signedIT_E4typeES4_b, 
                       __ZN4base8internal17ConditionalNegateImEENSt3__111make_signedIT_E4typeES4_b, 
                       __ZN4base8internal19ScopedFDCloseTraits12InvalidValueEv, __ZN4base8internal19saturated_cast_implIjNS0_23SaturationDefaultLimitsExEET_T1_NS0_10RangeCheckE, 
                       __ZN4base8internal19saturated_cast_implIlNS0_23SaturationDefaultLimitsExEET_T1_NS0_10RangeCheckE, 
                       __ZN4base8internal20IsValueInRangeFastOpIjxvE2DoEx, __ZN4base8internal21IsCompileTimeConstantIxEEbT_, 
                       __ZN4base8internal23SaturationDefaultLimitsIjE8OverflowEv, 
                       __ZN4base8internal23SaturationDefaultLimitsIjE9UnderflowEv, 
                       __ZN4base8internal23SaturationDefaultLimitsIlE8OverflowEv, 
                       __ZN4base8internal23SaturationDefaultLimitsIlE9UnderflowEv, 
                       __ZN4base8internal26DstRangeRelationToSrcRangeIjNS0_23SaturationDefaultLimitsExEENS0_10RangeCheckET1_, 
                       __ZN4base8internal26DstRangeRelationToSrcRangeIlNS0_23SaturationDefaultLimitsExEENS0_10RangeCheckET1_, 
                       __ZN4base8internal26DstRangeRelationToSrcRangeIlNSt3__114numeric_limitsEmEENS0_10RangeCheckET1_, 
                       __ZN4base8internal26DstRangeRelationToSrcRangeIlNSt3__114numeric_limitsExEENS0_10RangeCheckET1_, 
                       __ZN4base8internal26DstRangeRelationToSrcRangeIxNSt3__114numeric_limitsElEENS0_10RangeCheckET1_, 
                       __ZN4base8internal26DstRangeRelationToSrcRangeIyNSt3__114numeric_limitsEmEENS0_10RangeCheckET1_, 
                       __ZN4base8internal28IsValueInRangeForNumericTypeIjxEEbT0_, 
                       __ZN4base8internal28IsValueInRangeForNumericTypeIlmEEbT0_, 
                       __ZN4base8internal28IsValueInRangeForNumericTypeIlxEEbT0_, 
                       __ZN4base8internal28IsValueInRangeForNumericTypeIxlEEbT0_, 
                       __ZN4base8internal28IsValueInRangeForNumericTypeIymEEbT0_, 
                       __ZN4base8internal30DstRangeRelationToSrcRangeImplIjxNS0_23SaturationDefaultLimitsELNS0_21IntegerRepresentationE0ELS3_1ELNS0_26NumericRangeRepresentationE0EE5CheckEx, 
                       __ZN4base8internal30DstRangeRelationToSrcRangeImplIlmNSt3__114numeric_limitsELNS0_21IntegerRepresentationE1ELS4_0ELNS0_26NumericRangeRepresentationE0EE5CheckEm, 
                       __ZN4base8internal30DstRangeRelationToSrcRangeImplIlxNS0_23SaturationDefaultLimitsELNS0_21IntegerRepresentationE1ELS3_1ELNS0_26NumericRangeRepresentationE1EE5CheckEx, 
                       __ZN4base8internal30DstRangeRelationToSrcRangeImplIlxNSt3__114numeric_limitsELNS0_21IntegerRepresentationE1ELS4_1ELNS0_26NumericRangeRepresentationE1EE5CheckEx, 
                       __ZN4base8internal30DstRangeRelationToSrcRangeImplIxlNSt3__114numeric_limitsELNS0_21IntegerRepresentationE1ELS4_1ELNS0_26NumericRangeRepresentationE1EE5CheckEl, 
                       __ZN4base8internal30DstRangeRelationToSrcRangeImplIymNSt3__114numeric_limitsELNS0_21IntegerRepresentationE0ELS4_0ELNS0_26NumericRangeRepresentationE1EE5CheckEm, 
                       __ZN4base8internal9CommonMaxIjxEET_v, __ZN4base8internal9CommonMaxIlxEET_v, 
                       __ZN4base8internal9CommonMaxIxjEET_v, __ZN4base8internal9CommonMinIjxEET_v, 
                       __ZN4base8internal9CommonMinIlxEET_v, __ZN4baselsINSt3__112basic_stringIcNS1_11char_traitsIcEENS1_9allocatorIcEEEEEERNS1_13basic_ostreamIcS4_EESA_RKNS_16BasicStringPieceIT_EE, 
                       __ZN4baseneIjNS_3mac8internal18ReceiveRightTraitsEEEbRKT_RKNS_13ScopedGenericIS4_T0_EE, 
                       __ZN7logging10LogMessage6streamEv, __ZN7logging11CheckEQImplEiiPKc, 
                       __ZN7logging11CheckEQImplIN8crashpad19InitializationState5StateES3_EEPNSt3__112basic_stringIcNS4_11char_traitsIcEENS4_9allocatorIcEEEERKT_RKT0_PKc, 
                       __ZN7logging11CheckEQImplIjjEEPNSt3__112basic_stringIcNS1_11char_traitsIcEENS1_9allocatorIcEEEERKT_RKT0_PKc, 
                       __ZN7logging11CheckEQImplIliEEPNSt3__112basic_stringIcNS1_11char_traitsIcEENS1_9allocatorIcEEEERKT_RKT0_PKc, 
                       __ZN7logging11CheckEQImplIllEEPNSt3__112basic_stringIcNS1_11char_traitsIcEENS1_9allocatorIcEEEERKT_RKT0_PKc, 
                       __ZN7logging11CheckEQImplImjEEPNSt3__112basic_stringIcNS1_11char_traitsIcEENS1_9allocatorIcEEEERKT_RKT0_PKc, 
                       __ZN7logging11CheckGEImplEiiPKc, __ZN7logging11CheckGEImplIddEEPNSt3__112basic_stringIcNS1_11char_traitsIcEENS1_9allocatorIcEEEERKT_RKT0_PKc, 
                       __ZN7logging11CheckGEImplIjmEEPNSt3__112basic_stringIcNS1_11char_traitsIcEENS1_9allocatorIcEEEERKT_RKT0_PKc, 
                       __ZN7logging11CheckGEImplIliEEPNSt3__112basic_stringIcNS1_11char_traitsIcEENS1_9allocatorIcEEEERKT_RKT0_PKc, 
                       __ZN7logging11CheckGTImplIjjEEPNSt3__112basic_stringIcNS1_11char_traitsIcEENS1_9allocatorIcEEEERKT_RKT0_PKc, 
                       __ZN7logging11CheckGTImplIyjEEPNSt3__112basic_stringIcNS1_11char_traitsIcEENS1_9allocatorIcEEEERKT_RKT0_PKc, 
                       __ZN7logging11CheckLEImplEiiPKc, __ZN7logging11CheckLEImplImmEEPNSt3__112basic_stringIcNS1_11char_traitsIcEENS1_9allocatorIcEEEERKT_RKT0_PKc, 
                       __ZN7logging11CheckLTImplIddEEPNSt3__112basic_stringIcNS1_11char_traitsIcEENS1_9allocatorIcEEEERKT_RKT0_PKc, 
                       __ZN7logging11CheckNEImplEiiPKc, __ZN7logging11CheckNEImplIliEEPNSt3__112basic_stringIcNS1_11char_traitsIcEENS1_9allocatorIcEEEERKT_RKT0_PKc, 
                       __ZN7logging17MakeCheckOpStringIN8crashpad19InitializationState5StateES3_EEPNSt3__112basic_stringIcNS4_11char_traitsIcEENS4_9allocatorIcEEEERKT_RKT0_PKc, 
                       __ZN7logging17MakeCheckOpStringIddEEPNSt3__112basic_stringIcNS1_11char_traitsIcEENS1_9allocatorIcEEEERKT_RKT0_PKc, 
                       __ZN7logging17MakeCheckOpStringIiiEEPNSt3__112basic_stringIcNS1_11char_traitsIcEENS1_9allocatorIcEEEERKT_RKT0_PKc, 
                       __ZN7logging17MakeCheckOpStringIjjEEPNSt3__112basic_stringIcNS1_11char_traitsIcEENS1_9allocatorIcEEEERKT_RKT0_PKc, 
                       __ZN7logging17MakeCheckOpStringIjmEEPNSt3__112basic_stringIcNS1_11char_traitsIcEENS1_9allocatorIcEEEERKT_RKT0_PKc, 
                       __ZN7logging17MakeCheckOpStringIliEEPNSt3__112basic_stringIcNS1_11char_traitsIcEENS1_9allocatorIcEEEERKT_RKT0_PKc, 
                       __ZN7logging17MakeCheckOpStringIllEEPNSt3__112basic_stringIcNS1_11char_traitsIcEENS1_9allocatorIcEEEERKT_RKT0_PKc, 
                       __ZN7logging17MakeCheckOpStringImjEEPNSt3__112basic_stringIcNS1_11char_traitsIcEENS1_9allocatorIcEEEERKT_RKT0_PKc, 
                       __ZN7logging17MakeCheckOpStringImmEEPNSt3__112basic_stringIcNS1_11char_traitsIcEENS1_9allocatorIcEEEERKT_RKT0_PKc, 
                       __ZN7logging17MakeCheckOpStringIyjEEPNSt3__112basic_stringIcNS1_11char_traitsIcEENS1_9allocatorIcEEEERKT_RKT0_PKc, 
                       __ZN8crashpad11InRangeCastIlxEET_T0_S1_, __ZN8crashpad11InRangeCastIxlEET_T0_S1_, 
                       __ZN8crashpad12CrashpadInfo36set_system_crash_reporter_forwardingENS_8TriStateE, 
                       __ZN8crashpad13implicit_castIimEET_RKT0_, __ZN8crashpad13implicit_castIjiEET_RKT0_, 
                       __ZN8crashpad13implicit_castImlEET_RKT0_, __ZN8crashpad13implicit_castIyjEET_RKT0_, 
                       __ZN8crashpad14ExceptionPorts22ExceptionHandlerVector9push_backERNS0_16ExceptionHandlerE, 
                       __ZN8crashpad15FromPointerCastIyPKvEENSt3__19enable_ifIXaasr3std10is_pointerIT0_EE5valuesr3std11is_integralIT_EE5valueES6_E4typeES5_, 
                       __ZN8crashpad15FromPointerCastIyPNS_8internal31UserDataMinidumpStreamListEntryEEENSt3__19enable_ifIXaasr3std10is_pointerIT0_EE5valuesr3std11is_integralIT_EE5valueES7_E4typeES6_, 
                       __ZN8crashpad19CrashReportDatabase6ReportaSEOS1_, __ZN8crashpad19CrashReportDatabase6ReportaSERKS1_, 
                       __ZN8crashpad19InitializationState11set_invalidEv, __ZN8crashpad19InitializationState9set_validEv, 
                       __ZN8crashpad22CrashReportDatabaseMac16SettingsInternalEv, 
                       __ZN8crashpad22ScopedRemoveFileTraits12InvalidValueEv, __ZN8crashpad24WeakFileHandleFileReader15set_file_handleEi, 
                       __ZN8crashpad24WeakFileHandleFileWriter15set_file_handleEi, 
                       __ZN8crashpad8internal20ScopedDIRCloseTraits12InvalidValueEv, 
                       __ZN8crashpad8internal28ScopedLockedFileHandleTraits12InvalidValueEv, 
                       __ZNK4base13ScopedGenericINS_8FilePathEN8crashpad22ScopedRemoveFileTraitsEE3getEv, 
                       __ZNK4base13ScopedGenericIP3DIRN8crashpad8internal20ScopedDIRCloseTraitsEE3getEv, 
                       __ZNK4base13ScopedGenericIP3DIRN8crashpad8internal20ScopedDIRCloseTraitsEE8is_validEv, 
                       __ZNK4base13ScopedGenericIiN8crashpad8internal28ScopedLockedFileHandleTraitsEE3getEv, 
                       __ZNK4base13ScopedGenericIiN8crashpad8internal28ScopedLockedFileHandleTraitsEE8is_validEv, 
                       __ZNK4base13ScopedGenericIiNS_8internal19ScopedFDCloseTraitsEE3getEv, 
                       __ZNK4base13ScopedGenericIiNS_8internal19ScopedFDCloseTraitsEE8is_validEv, 
                       __ZNK4base13ScopedGenericIiNS_8internal19ScopedFDCloseTraitsEEneERKi, 
                       __ZNK4base13ScopedGenericIjNS_3mac8internal13PortSetTraitsEE3getEv, 
                       __ZNK4base13ScopedGenericIjNS_3mac8internal13PortSetTraitsEE8is_validEv, 
                       __ZNK4base13ScopedGenericIjNS_3mac8internal15SendRightTraitsEE3getEv, 
                       __ZNK4base13ScopedGenericIjNS_3mac8internal15SendRightTraitsEE8is_validEv, 
                       __ZNK4base13ScopedGenericIjNS_3mac8internal15SendRightTraitsEEeqERKj, 
                       __ZNK4base13ScopedGenericIjNS_3mac8internal18ReceiveRightTraitsEE3getEv, 
                       __ZNK4base13ScopedGenericIjNS_3mac8internal18ReceiveRightTraitsEE8is_validEv, 
                       __ZNK4base16BasicStringPieceINSt3__112basic_stringIDsNS1_11char_traitsIDsEENS1_9allocatorIDsEEEEE4dataEv, 
                       __ZNK4base16BasicStringPieceINSt3__112basic_stringIDsNS1_11char_traitsIDsEENS1_9allocatorIDsEEEEE6lengthEv, 
                       __ZNK4base16BasicStringPieceINSt3__112basic_stringIcNS1_11char_traitsIcEENS1_9allocatorIcEEEEE3endEv, 
                       __ZNK4base16BasicStringPieceINSt3__112basic_stringIcNS1_11char_traitsIcEENS1_9allocatorIcEEEEE4dataEv, 
                       __ZNK4base16BasicStringPieceINSt3__112basic_stringIcNS1_11char_traitsIcEENS1_9allocatorIcEEEEE4sizeEv, 
                       __ZNK4base16BasicStringPieceINSt3__112basic_stringIcNS1_11char_traitsIcEENS1_9allocatorIcEEEEE5beginEv, 
                       __ZNK4base16BasicStringPieceINSt3__112basic_stringIcNS1_11char_traitsIcEENS1_9allocatorIcEEEEE6lengthEv, 
                       __ZNK4base3mac12ScopedMachVM4sizeEv, __ZNK4base3mac12ScopedMachVM7addressEv, 
                       __ZNK4base8FilePath5emptyEv, __ZNK4base8FilePath5valueEv, 
                       __ZNK4base8internal10RangeCheck17IsOverflowFlagSetEv, __ZNK4base8internal10RangeCheck18IsUnderflowFlagSetEv, 
                       __ZNK4base8internal10RangeCheck7IsValidEv, __ZNK7logging17LogMessageVoidifyanERKNSt3__113basic_ostreamIcNS1_11char_traitsIcEEEE, 
                       __ZNK8crashpad19CrashReportDatabase9NewReport6WriterEv, __ZNK8crashpad19CrashReportDatabase9NewReport8ReportIDEv, 
                       __ZNK8crashpad19InitializationState16is_uninitializedEv, __ZNK8crashpad19InitializationState5stateEv, 
                       __ZNK8crashpad19InitializationState8is_validEv, __ZNK8crashpad25InitializationStateDcheck5stateEv, 
                       __ZNK8crashpad4UUIDneERKS0_, __ZNK8crashpad8Settings9file_pathEv, 
                       __ZNKSt3__110__ignore_tIhEaSB6v15006IN4base8FilePathEEERKS1_OT_, 
                       __ZNKSt3__110__ignore_tIhEaSB6v15006IjEERKS1_OT_, __ZNKSt3__112basic_stringIcNS_11char_traitsIcEENS_9allocatorIcEEE7compareINS_17basic_string_viewIcS2_EEEENS_9enable_ifIXsr33__can_be_converted_to_string_viewIcS2_T_EE5valueEiE4typeERKSA_, 
                       __ZNKSt3__16__treeINS_12__value_typeINS_12basic_stringIcNS_11char_traitsIcEENS_9allocatorIcEEEEPN8crashpad10FileReaderEEENS_19__map_value_compareIS7_SB_NS_4lessIS7_EELb1EEENS5_ISB_EEE10__root_ptrEv, 
                       __ZNKSt3__16__treeIiNS_4lessIiEENS_9allocatorIiEEE10__root_ptrEv, 
                       __ZNKSt3__16vectorIN4base13ScopedGenericINS1_8FilePathEN8crashpad22ScopedRemoveFileTraitsEEENS_9allocatorIS6_EEE8max_sizeEv, 
                       __ZNKSt3__16vectorIN4base8FilePathENS_9allocatorIS2_EEE8max_sizeEv, 
                       __ZNKSt3__16vectorIN8crashpad14ExceptionPorts16ExceptionHandlerENS_9allocatorIS3_EEE8max_sizeEv, 
                       __ZNKSt3__16vectorIN8crashpad19CrashReportDatabase6ReportENS_9allocatorIS3_EEE8max_sizeEv, 
                       __ZNKSt3__16vectorINS_10unique_ptrIN8crashpad10FileReaderENS_14default_deleteIS3_EEEENS_9allocatorIS6_EEE8max_sizeEv, 
                       __ZNKSt3__16vectorINS_10unique_ptrIN8crashpad10FileWriterENS_14default_deleteIS3_EEEENS_9allocatorIS6_EEE8max_sizeEv, 
                       __ZNKSt3__16vectorINS_12basic_stringIcNS_11char_traitsIcEENS_9allocatorIcEEEENS4_IS6_EEE8max_sizeEv, 
                       __ZNKSt3__16vectorIPKcNS_9allocatorIS2_EEE8max_sizeEv, __ZNKSt3__16vectorIcNS_9allocatorIcEEE8max_sizeEv, 
                       __ZNKSt3__16vectorIhNS_9allocatorIhEEE8max_sizeEv, __ZNSt3__111__tree_leafIPNS_16__tree_node_baseIPvEEEET_S5_, 
                       __ZNSt3__111char_traitsIDsE6assignERDsRKDs, __ZNSt3__111char_traitsIcE11eq_int_typeEii, 
                       __ZNSt3__111char_traitsIcE3eofEv, __ZNSt3__111char_traitsIcE4copyEPcPKcm, 
                       __ZNSt3__111char_traitsIcE6assignEPcmc, __ZNSt3__111char_traitsIcE6assignERcRKc, 
                       __ZNSt3__111char_traitsIcE6lengthEPKc, __ZNSt3__111char_traitsIcE7compareEPKcS3_m, 
                       __ZNSt3__112basic_stringIDsNS_11char_traitsIDsEENS_9allocatorIDsEEE10__align_itB6v15006ILm8EEEmm, 
                       __ZNSt3__112basic_stringIDsNS_11char_traitsIDsEENS_9allocatorIDsEEE6appendEmDs, 
                       __ZNSt3__112basic_stringIDsNS_11char_traitsIDsEENS_9allocatorIDsEEE6resizeEmDs, 
                       __ZNSt3__112basic_stringIDsNS_11char_traitsIDsEENS_9allocatorIDsEEE7reserveEm, 
                       __ZNSt3__112basic_stringIDsNS_11char_traitsIDsEENS_9allocatorIDsEEE9__grow_byEmmmmmm, 
                       __ZNSt3__112basic_stringIDsNS_11char_traitsIDsEENS_9allocatorIDsEEE9push_backEDs, 
                       __ZNSt3__112basic_stringIcNS_11char_traitsIcEENS_9allocatorIcEEE10__align_itB6v15006ILm16EEEmm, 
                       __ZNSt3__114__split_bufferIN4base8FilePathERNS_9allocatorIS2_EEE18__construct_at_endIPKS2_EENS_9enable_ifIXsr27__is_cpp17_forward_iteratorIT_EE5valueEvE4typeESB_SB_, 
                       __ZNSt3__114__split_bufferIN8crashpad19CrashReportDatabase6ReportERNS_9allocatorIS3_EEE18__construct_at_endINS_11__wrap_iterIPS3_EEEENS_9enable_ifIXsr27__is_cpp17_forward_iteratorIT_EE5valueEvE4typeESD_SD_, 
                       __ZNSt3__116allocator_traitsINS_9allocatorIDsEEE8max_sizeB6v15006IS2_vEEmRKS2_, 
                       __ZNSt3__116allocator_traitsINS_9allocatorIN4base13ScopedGenericINS2_8FilePathEN8crashpad22ScopedRemoveFileTraitsEEEEEE7destroyB6v15006IS7_vEEvRS8_PT_, 
                       __ZNSt3__116allocator_traitsINS_9allocatorIN4base13ScopedGenericINS2_8FilePathEN8crashpad22ScopedRemoveFileTraitsEEEEEE8max_sizeB6v15006IS8_vEEmRKS8_, 
                       __ZNSt3__116allocator_traitsINS_9allocatorIN4base13ScopedGenericINS2_8FilePathEN8crashpad22ScopedRemoveFileTraitsEEEEEE9constructB6v15006IS7_JS7_EvEEvRS8_PT_DpOT0_, 
                       __ZNSt3__116allocator_traitsINS_9allocatorIN4base8FilePathEEEE7destroyB6v15006IS3_vEEvRS4_PT_, 
                       __ZNSt3__116allocator_traitsINS_9allocatorIN4base8FilePathEEEE8max_sizeB6v15006IS4_vEEmRKS4_, 
                       __ZNSt3__116allocator_traitsINS_9allocatorIN4base8FilePathEEEE9constructB6v15006IS3_JRKS3_EvEEvRS4_PT_DpOT0_, 
                       __ZNSt3__116allocator_traitsINS_9allocatorIN4base8FilePathEEEE9constructB6v15006IS3_JRPcEvEEvRS4_PT_DpOT0_, 
                       __ZNSt3__116allocator_traitsINS_9allocatorIN4base8FilePathEEEE9constructB6v15006IS3_JRS3_EvEEvRS4_PT_DpOT0_, 
                       __ZNSt3__116allocator_traitsINS_9allocatorIN4base8FilePathEEEE9constructB6v15006IS3_JS3_EvEEvRS4_PT_DpOT0_, 
                       __ZNSt3__116allocator_traitsINS_9allocatorIN8crashpad14ExceptionPorts16ExceptionHandlerEEEE7destroyB6v15006IS4_vEEvRS5_PT_, 
                       __ZNSt3__116allocator_traitsINS_9allocatorIN8crashpad14ExceptionPorts16ExceptionHandlerEEEE8max_sizeB6v15006IS5_vEEmRKS5_, 
                       __ZNSt3__116allocator_traitsINS_9allocatorIN8crashpad14ExceptionPorts16ExceptionHandlerEEEE9constructB6v15006IS4_JRKS4_EvEEvRS5_PT_DpOT0_, 
                       __ZNSt3__116allocator_traitsINS_9allocatorIN8crashpad19CrashReportDatabase6ReportEEEE7destroyB6v15006IS4_vEEvRS5_PT_, 
                       __ZNSt3__116allocator_traitsINS_9allocatorIN8crashpad19CrashReportDatabase6ReportEEEE8max_sizeB6v15006IS5_vEEmRKS5_, 
                       __ZNSt3__116allocator_traitsINS_9allocatorIN8crashpad19CrashReportDatabase6ReportEEEE9constructB6v15006IS4_JRKS4_EvEEvRS5_PT_DpOT0_, 
                       __ZNSt3__116allocator_traitsINS_9allocatorIN8crashpad19CrashReportDatabase6ReportEEEE9constructB6v15006IS4_JRS4_EvEEvRS5_PT_DpOT0_, 
                       __ZNSt3__116allocator_traitsINS_9allocatorIN8crashpad19CrashReportDatabase6ReportEEEE9constructB6v15006IS4_JS4_EvEEvRS5_PT_DpOT0_, 
                       __ZNSt3__116allocator_traitsINS_9allocatorINS_10unique_ptrIN8crashpad10FileReaderENS_14default_deleteIS4_EEEEEEE7destroyB6v15006IS7_vEEvRS8_PT_, 
                       __ZNSt3__116allocator_traitsINS_9allocatorINS_10unique_ptrIN8crashpad10FileReaderENS_14default_deleteIS4_EEEEEEE8max_sizeB6v15006IS8_vEEmRKS8_, 
                       __ZNSt3__116allocator_traitsINS_9allocatorINS_10unique_ptrIN8crashpad10FileReaderENS_14default_deleteIS4_EEEEEEE9constructB6v15006IS7_JS7_EvEEvRS8_PT_DpOT0_, 
                       __ZNSt3__116allocator_traitsINS_9allocatorINS_10unique_ptrIN8crashpad10FileWriterENS_14default_deleteIS4_EEEEEEE7destroyB6v15006IS7_vEEvRS8_PT_, 
                       __ZNSt3__116allocator_traitsINS_9allocatorINS_10unique_ptrIN8crashpad10FileWriterENS_14default_deleteIS4_EEEEEEE8max_sizeB6v15006IS8_vEEmRKS8_, 
                       __ZNSt3__116allocator_traitsINS_9allocatorINS_10unique_ptrIN8crashpad10FileWriterENS_14default_deleteIS4_EEEEEEE9constructB6v15006IS7_JS7_EvEEvRS8_PT_DpOT0_, 
                       __ZNSt3__116allocator_traitsINS_9allocatorINS_11__tree_nodeINS_12__value_typeINS_12basic_stringIcNS_11char_traitsIcEENS1_IcEEEEPN8crashpad10FileReaderEEEPvEEEEE7destroyB6v15006INS_4pairIKS8_SB_EEvvEEvRSF_PT_, 
                       __ZNSt3__116allocator_traitsINS_9allocatorINS_11__tree_nodeINS_12__value_typeINS_12basic_stringIcNS_11char_traitsIcEENS1_IcEEEEPN8crashpad10FileReaderEEEPvEEEEE8max_sizeB6v15006ISF_vEEmRKSF_, 
                       __ZNSt3__116allocator_traitsINS_9allocatorINS_11__tree_nodeINS_12__value_typeINS_12basic_stringIcNS_11char_traitsIcEENS1_IcEEEEPN8crashpad10FileReaderEEEPvEEEEE9constructB6v15006INS_4pairIKS8_SB_EEJRKNS_21piecewise_construct_tENS_5tupleIJRSJ_EEENSO_IJEEEEvEEvRSF_PT_DpOT0_, 
                       __ZNSt3__116allocator_traitsINS_9allocatorINS_11__tree_nodeINS_12__value_typeINS_12basic_stringIcNS_11char_traitsIcEENS1_IcEEEES8_EEPvEEEEE7destroyB6v15006INS_4pairIKS8_S8_EEvvEEvRSC_PT_, 
                       __ZNSt3__116allocator_traitsINS_9allocatorINS_11__tree_nodeINS_12__value_typeINS_12basic_stringIcNS_11char_traitsIcEENS1_IcEEEES8_EEPvEEEEE8max_sizeB6v15006ISC_vEEmRKSC_, 
                       __ZNSt3__116allocator_traitsINS_9allocatorINS_11__tree_nodeINS_12__value_typeINS_12basic_stringIcNS_11char_traitsIcEENS1_IcEEEES8_EEPvEEEEE9constructB6v15006INS_4pairIKS8_S8_EEJRKSH_EvEEvRSC_PT_DpOT0_, 
                       __ZNSt3__116allocator_traitsINS_9allocatorINS_11__tree_nodeIiPvEEEEE7destroyB6v15006IivvEEvRS5_PT_, 
                       __ZNSt3__116allocator_traitsINS_9allocatorINS_11__tree_nodeIiPvEEEEE8max_sizeB6v15006IS5_vEEmRKS5_, 
                       __ZNSt3__116allocator_traitsINS_9allocatorINS_11__tree_nodeIiPvEEEEE9constructB6v15006IiJRKiEvEEvRS5_PT_DpOT0_, 
                       __ZNSt3__116allocator_traitsINS_9allocatorINS_12basic_stringIcNS_11char_traitsIcEENS1_IcEEEEEEE7destroyB6v15006IS6_vEEvRS7_PT_, 
                       __ZNSt3__116allocator_traitsINS_9allocatorINS_12basic_stringIcNS_11char_traitsIcEENS1_IcEEEEEEE8max_sizeB6v15006IS7_vEEmRKS7_, 
                       __ZNSt3__116allocator_traitsINS_9allocatorINS_12basic_stringIcNS_11char_traitsIcEENS1_IcEEEEEEE9constructB6v15006IS6_JRKS6_EvEEvRS7_PT_DpOT0_, 
                       __ZNSt3__116allocator_traitsINS_9allocatorINS_12basic_stringIcNS_11char_traitsIcEENS1_IcEEEEEEE9constructB6v15006IS6_JRS6_EvEEvRS7_PT_DpOT0_, 
                       __ZNSt3__116allocator_traitsINS_9allocatorINS_12basic_stringIcNS_11char_traitsIcEENS1_IcEEEEEEE9constructB6v15006IS6_JS6_EvEEvRS7_PT_DpOT0_, 
                       __ZNSt3__116allocator_traitsINS_9allocatorIPKcEEE7destroyB6v15006IS3_vEEvRS4_PT_, 
                       __ZNSt3__116allocator_traitsINS_9allocatorIPKcEEE8max_sizeB6v15006IS4_vEEmRKS4_, 
                       __ZNSt3__116allocator_traitsINS_9allocatorIPKcEEE9constructB6v15006IS3_JS3_EvEEvRS4_PT_DpOT0_, 
                       __ZNSt3__116allocator_traitsINS_9allocatorIcEEE37select_on_container_copy_constructionB6v15006IS2_vvEES2_RKS2_, 
                       __ZNSt3__116allocator_traitsINS_9allocatorIcEEE7destroyB6v15006IcvEEvRS2_PT_, 
                       __ZNSt3__116allocator_traitsINS_9allocatorIcEEE8max_sizeB6v15006IS2_vEEmRKS2_, 
                       __ZNSt3__116allocator_traitsINS_9allocatorIcEEE9constructB6v15006IcJEvEEvRS2_PT_DpOT0_, 
                       __ZNSt3__116allocator_traitsINS_9allocatorIhEEE7destroyB6v15006IhvEEvRS2_PT_, 
                       __ZNSt3__116allocator_traitsINS_9allocatorIhEEE8max_sizeB6v15006IS2_vEEmRKS2_, 
                       __ZNSt3__116allocator_traitsINS_9allocatorIhEEE9constructB6v15006IhJhEvEEvRS2_PT_DpOT0_, 
                       __ZNSt3__117__call_once_paramINS_5tupleIJOZN8crashpad22CrashReportDatabaseMac16SettingsInternalEvEUlvE_EEEE9__executeB6v15006IJEEEvNS_15__tuple_indicesIJXspT_EEEE, 
                       __ZNSt3__118__tree_left_rotateIPNS_16__tree_node_baseIPvEEEEvT_, 
                       __ZNSt3__119__tree_right_rotateIPNS_16__tree_node_baseIPvEEEEvT_, 
                       __ZNSt3__124__put_character_sequenceIcNS_11char_traitsIcEEEERNS_13basic_ostreamIT_T0_EES7_PKS4_m, 
                       __ZNSt3__127__tree_balance_after_insertIPNS_16__tree_node_baseIPvEEEEvT_S5_, 
                       __ZNSt3__13mapINS_12basic_stringIcNS_11char_traitsIcEENS_9allocatorIcEEEEPN8crashpad10FileReaderENS_4lessIS6_EENS4_INS_4pairIKS6_S9_EEEEEixERSD_, 
                       __ZNSt3__13setIiNS_4lessIiEENS_9allocatorIiEEE6insertB6v15006IPKiEEvT_S9_, 
                       __ZNSt3__14endlIcNS_11char_traitsIcEEEERNS_13basic_ostreamIT_T0_EES7_, 
                       __ZNSt3__14pairIRNS_12basic_stringIcNS_11char_traitsIcEENS_9allocatorIcEEEES7_EaSB6v15006IRKNS0_IKS6_S6_EELPv0EEERS8_OT_, 
                       __ZNSt3__16__treeINS_12__value_typeINS_12basic_stringIcNS_11char_traitsIcEENS_9allocatorIcEEEEPN8crashpad10FileReaderEEENS_19__map_value_compareIS7_SB_NS_4lessIS7_EELb1EEENS5_ISB_EEE12__find_equalIS7_EERPNS_16__tree_node_baseIPvEERPNS_15__tree_end_nodeISM_EERKT_, 
                       __ZNSt3__16__treeINS_12__value_typeINS_12basic_stringIcNS_11char_traitsIcEENS_9allocatorIcEEEEPN8crashpad10FileReaderEEENS_19__map_value_compareIS7_SB_NS_4lessIS7_EELb1EEENS5_ISB_EEE16__construct_nodeIJRKNS_21piecewise_construct_tENS_5tupleIJRKS7_EEENSM_IJEEEEEENS_10unique_ptrINS_11__tree_nodeISB_PvEENS_22__tree_node_destructorINS5_ISU_EEEEEEDpOT_, 
                       __ZNSt3__16__treeINS_12__value_typeINS_12basic_stringIcNS_11char_traitsIcEENS_9allocatorIcEEEEPN8crashpad10FileReaderEEENS_19__map_value_compareIS7_SB_NS_4lessIS7_EELb1EEENS5_ISB_EEE16__insert_node_atEPNS_15__tree_end_nodeIPNS_16__tree_node_baseIPvEEEERSM_SM_, 
                       __ZNSt3__16__treeINS_12__value_typeINS_12basic_stringIcNS_11char_traitsIcEENS_9allocatorIcEEEEPN8crashpad10FileReaderEEENS_19__map_value_compareIS7_SB_NS_4lessIS7_EELb1EEENS5_ISB_EEE25__emplace_unique_key_argsIS7_JRKNS_21piecewise_construct_tENS_5tupleIJRKS7_EEENSM_IJEEEEEENS_4pairINS_15__tree_iteratorISB_PNS_11__tree_nodeISB_PvEElEEbEERKT_DpOT0_, 
                       __ZNSt3__16__treeINS_12__value_typeINS_12basic_stringIcNS_11char_traitsIcEENS_9allocatorIcEEEEPN8crashpad10FileReaderEEENS_19__map_value_compareIS7_SB_NS_4lessIS7_EELb1EEENS5_ISB_EEE7destroyEPNS_11__tree_nodeISB_PvEE, 
                       __ZNSt3__16__treeINS_12__value_typeINS_12basic_stringIcNS_11char_traitsIcEENS_9allocatorIcEEEES7_EENS_19__map_value_compareIS7_S8_NS_4lessIS7_EELb1EEENS5_IS8_EEE14__assign_multiINS_21__tree_const_iteratorIS8_PNS_11__tree_nodeIS8_PvEElEEEEvT_SM_, 
                       __ZNSt3__16__treeINS_12__value_typeINS_12basic_stringIcNS_11char_traitsIcEENS_9allocatorIcEEEES7_EENS_19__map_value_compareIS7_S8_NS_4lessIS7_EELb1EEENS5_IS8_EEE14__insert_multiB6v15006IRKNS_4pairIKS7_S7_EEEENS_15__tree_iteratorIS8_PNS_11__tree_nodeIS8_PvEElEEOT_, 
                       __ZNSt3__16__treeINS_12__value_typeINS_12basic_stringIcNS_11char_traitsIcEENS_9allocatorIcEEEES7_EENS_19__map_value_compareIS7_S8_NS_4lessIS7_EELb1EEENS5_IS8_EEE15__emplace_multiIJRKNS_4pairIKS7_S7_EEEEENS_15__tree_iteratorIS8_PNS_11__tree_nodeIS8_PvEElEEDpOT_, 
                       __ZNSt3__16__treeINS_12__value_typeINS_12basic_stringIcNS_11char_traitsIcEENS_9allocatorIcEEEES7_EENS_19__map_value_compareIS7_S8_NS_4lessIS7_EELb1EEENS5_IS8_EEE16__construct_nodeIJRKNS_4pairIKS7_S7_EEEEENS_10unique_ptrINS_11__tree_nodeIS8_PvEENS_22__tree_node_destructorINS5_ISO_EEEEEEDpOT_, 
                       __ZNSt3__16__treeINS_12__value_typeINS_12basic_stringIcNS_11char_traitsIcEENS_9allocatorIcEEEES7_EENS_19__map_value_compareIS7_S8_NS_4lessIS7_EELb1EEENS5_IS8_EEE16__find_leaf_highERPNS_15__tree_end_nodeIPNS_16__tree_node_baseIPvEEEERKS7_, 
                       __ZNSt3__16__treeINS_12__value_typeINS_12basic_stringIcNS_11char_traitsIcEENS_9allocatorIcEEEES7_EENS_19__map_value_compareIS7_S8_NS_4lessIS7_EELb1EEENS5_IS8_EEE16__insert_node_atEPNS_15__tree_end_nodeIPNS_16__tree_node_baseIPvEEEERSJ_SJ_, 
                       __ZNSt3__16__treeINS_12__value_typeINS_12basic_stringIcNS_11char_traitsIcEENS_9allocatorIcEEEES7_EENS_19__map_value_compareIS7_S8_NS_4lessIS7_EELb1EEENS5_IS8_EEE7destroyEPNS_11__tree_nodeIS8_PvEE, 
                       __ZNSt3__16__treeINS_12__value_typeINS_12basic_stringIcNS_11char_traitsIcEENS_9allocatorIcEEEES7_EENS_19__map_value_compareIS7_S8_NS_4lessIS7_EELb1EEENS5_IS8_EEEaSERKSE_, 
                       __ZNSt3__16__treeIiNS_4lessIiEENS_9allocatorIiEEE12__find_equalIiEERPNS_16__tree_node_baseIPvEENS_21__tree_const_iteratorIiPNS_11__tree_nodeIiS8_EElEERPNS_15__tree_end_nodeISA_EESB_RKT_, 
                       __ZNSt3__16__treeIiNS_4lessIiEENS_9allocatorIiEEE12__find_equalIiEERPNS_16__tree_node_baseIPvEERPNS_15__tree_end_nodeISA_EERKT_, 
                       __ZNSt3__16__treeIiNS_4lessIiEENS_9allocatorIiEEE16__construct_nodeIJRKiEEENS_10unique_ptrINS_11__tree_nodeIiPvEENS_22__tree_node_destructorINS3_ISC_EEEEEEDpOT_, 
                       __ZNSt3__16__treeIiNS_4lessIiEENS_9allocatorIiEEE16__insert_node_atEPNS_15__tree_end_nodeIPNS_16__tree_node_baseIPvEEEERSA_SA_, 
                       __ZNSt3__16__treeIiNS_4lessIiEENS_9allocatorIiEEE30__emplace_hint_unique_key_argsIiJRKiEEENS_4pairINS_15__tree_iteratorIiPNS_11__tree_nodeIiPvEElEEbEENS_21__tree_const_iteratorIiSE_lEERKT_DpOT0_, 
                       __ZNSt3__16__treeIiNS_4lessIiEENS_9allocatorIiEEE7destroyEPNS_11__tree_nodeIiPvEE, 
                       __ZNSt3__16vectorIN4base13ScopedGenericINS1_8FilePathEN8crashpad22ScopedRemoveFileTraitsEEENS_9allocatorIS6_EEE12emplace_backIJS6_EEERS6_DpOT_, 
                       __ZNSt3__16vectorIN4base13ScopedGenericINS1_8FilePathEN8crashpad22ScopedRemoveFileTraitsEEENS_9allocatorIS6_EEE22__construct_one_at_endB6v15006IJS6_EEEvDpOT_, 
                       __ZNSt3__16vectorIN4base13ScopedGenericINS1_8FilePathEN8crashpad22ScopedRemoveFileTraitsEEENS_9allocatorIS6_EEE24__emplace_back_slow_pathIJS6_EEEvDpOT_, 
                       __ZNSt3__16vectorIN4base13ScopedGenericINS1_8FilePathEN8crashpad22ScopedRemoveFileTraitsEEENS_9allocatorIS6_EEE26__swap_out_circular_bufferERNS_14__split_bufferIS6_RS8_EE, 
                       __ZNSt3__16vectorIN4base8FilePathENS_9allocatorIS2_EEE12__move_rangeEPS2_S6_S6_, 
                       __ZNSt3__16vectorIN4base8FilePathENS_9allocatorIS2_EEE12emplace_backIJRPcEEERS2_DpOT_, 
                       __ZNSt3__16vectorIN4base8FilePathENS_9allocatorIS2_EEE13__vdeallocateEv, 
                       __ZNSt3__16vectorIN4base8FilePathENS_9allocatorIS2_EEE18__construct_at_endIPKS2_EENS_9enable_ifIXsr27__is_cpp17_forward_iteratorIT_EE5valueEvE4typeESA_SA_m, 
                       __ZNSt3__16vectorIN4base8FilePathENS_9allocatorIS2_EEE18__construct_at_endIPS2_EENS_9enable_ifIXsr27__is_cpp17_forward_iteratorIT_EE5valueEvE4typeES9_S9_m, 
                       __ZNSt3__16vectorIN4base8FilePathENS_9allocatorIS2_EEE22__construct_one_at_endB6v15006IJRPcEEEvDpOT_, 
                       __ZNSt3__16vectorIN4base8FilePathENS_9allocatorIS2_EEE24__emplace_back_slow_pathIJRPcEEEvDpOT_, 
                       __ZNSt3__16vectorIN4base8FilePathENS_9allocatorIS2_EEE26__swap_out_circular_bufferERNS_14__split_bufferIS2_RS4_EE, 
                       __ZNSt3__16vectorIN4base8FilePathENS_9allocatorIS2_EEE26__swap_out_circular_bufferERNS_14__split_bufferIS2_RS4_EEPS2_, 
                       __ZNSt3__16vectorIN4base8FilePathENS_9allocatorIS2_EEE6assignIPS2_EENS_9enable_ifIXaasr27__is_cpp17_forward_iteratorIT_EE5valuesr16is_constructibleIS2_NS_15iterator_traitsIS9_E9referenceEEE5valueEvE4typeES9_S9_, 
                       __ZNSt3__16vectorIN4base8FilePathENS_9allocatorIS2_EEE6insertIPKS2_EENS_9enable_ifIXaasr27__is_cpp17_forward_iteratorIT_EE5valuesr16is_constructibleIS2_NS_15iterator_traitsISA_E9referenceEEE5valueENS_11__wrap_iterIPS2_EEE4typeENSE_IS8_EESA_SA_, 
                       __ZNSt3__16vectorIN8crashpad14ExceptionPorts16ExceptionHandlerENS_9allocatorIS3_EEE21__push_back_slow_pathIRKS3_EEvOT_, 
                       __ZNSt3__16vectorIN8crashpad14ExceptionPorts16ExceptionHandlerENS_9allocatorIS3_EEE22__construct_one_at_endB6v15006IJRKS3_EEEvDpOT_, 
                       __ZNSt3__16vectorIN8crashpad14ExceptionPorts16ExceptionHandlerENS_9allocatorIS3_EEE26__swap_out_circular_bufferERNS_14__split_bufferIS3_RS5_EE, 
                       __ZNSt3__16vectorIN8crashpad19CrashReportDatabase6ReportENS_9allocatorIS3_EEE12__move_rangeEPS3_S7_S7_, 
                       __ZNSt3__16vectorIN8crashpad19CrashReportDatabase6ReportENS_9allocatorIS3_EEE18__construct_at_endINS_11__wrap_iterIPS3_EEEENS_9enable_ifIXsr27__is_cpp17_forward_iteratorIT_EE5valueEvE4typeESC_SC_m, 
                       __ZNSt3__16vectorIN8crashpad19CrashReportDatabase6ReportENS_9allocatorIS3_EEE21__push_back_slow_pathIRKS3_EEvOT_, 
                       __ZNSt3__16vectorIN8crashpad19CrashReportDatabase6ReportENS_9allocatorIS3_EEE22__construct_one_at_endB6v15006IJRKS3_EEEvDpOT_, 
                       __ZNSt3__16vectorIN8crashpad19CrashReportDatabase6ReportENS_9allocatorIS3_EEE26__swap_out_circular_bufferERNS_14__split_bufferIS3_RS5_EE, 
                       __ZNSt3__16vectorIN8crashpad19CrashReportDatabase6ReportENS_9allocatorIS3_EEE26__swap_out_circular_bufferERNS_14__split_bufferIS3_RS5_EEPS3_, 
                       __ZNSt3__16vectorIN8crashpad19CrashReportDatabase6ReportENS_9allocatorIS3_EEE6insertINS_11__wrap_iterIPS3_EEEENS_9enable_ifIXaasr27__is_cpp17_forward_iteratorIT_EE5valuesr16is_constructibleIS3_NS_15iterator_traitsISC_E9referenceEEE5valueESA_E4typeENS8_IPKS3_EESC_SC_, 
                       __ZNSt3__16vectorIN8crashpad19CrashReportDatabase6ReportENS_9allocatorIS3_EEE7reserveEm, 
                       __ZNSt3__16vectorINS_10unique_ptrIN8crashpad10FileReaderENS_14default_deleteIS3_EEEENS_9allocatorIS6_EEE12emplace_backIJS6_EEERS6_DpOT_, 
                       __ZNSt3__16vectorINS_10unique_ptrIN8crashpad10FileReaderENS_14default_deleteIS3_EEEENS_9allocatorIS6_EEE22__construct_one_at_endB6v15006IJS6_EEEvDpOT_, 
                       __ZNSt3__16vectorINS_10unique_ptrIN8crashpad10FileReaderENS_14default_deleteIS3_EEEENS_9allocatorIS6_EEE24__emplace_back_slow_pathIJS6_EEEvDpOT_, 
                       __ZNSt3__16vectorINS_10unique_ptrIN8crashpad10FileReaderENS_14default_deleteIS3_EEEENS_9allocatorIS6_EEE26__swap_out_circular_bufferERNS_14__split_bufferIS6_RS8_EE, 
                       __ZNSt3__16vectorINS_10unique_ptrIN8crashpad10FileWriterENS_14default_deleteIS3_EEEENS_9allocatorIS6_EEE12emplace_backIJS6_EEERS6_DpOT_, 
                       __ZNSt3__16vectorINS_10unique_ptrIN8crashpad10FileWriterENS_14default_deleteIS3_EEEENS_9allocatorIS6_EEE22__construct_one_at_endB6v15006IJS6_EEEvDpOT_, 
                       __ZNSt3__16vectorINS_10unique_ptrIN8crashpad10FileWriterENS_14default_deleteIS3_EEEENS_9allocatorIS6_EEE24__emplace_back_slow_pathIJS6_EEEvDpOT_, 
                       __ZNSt3__16vectorINS_10unique_ptrIN8crashpad10FileWriterENS_14default_deleteIS3_EEEENS_9allocatorIS6_EEE26__swap_out_circular_bufferERNS_14__split_bufferIS6_RS8_EE, 
                       __ZNSt3__16vectorINS_12basic_stringIcNS_11char_traitsIcEENS_9allocatorIcEEEENS4_IS6_EEE13__vdeallocateEv, 
                       __ZNSt3__16vectorINS_12basic_stringIcNS_11char_traitsIcEENS_9allocatorIcEEEENS4_IS6_EEE18__construct_at_endIPKS6_EENS_9enable_ifIXsr27__is_cpp17_forward_iteratorIT_EE5valueEvE4typeESD_SD_m, 
                       __ZNSt3__16vectorINS_12basic_stringIcNS_11char_traitsIcEENS_9allocatorIcEEEENS4_IS6_EEE18__construct_at_endIPS6_EENS_9enable_ifIXsr27__is_cpp17_forward_iteratorIT_EE5valueEvE4typeESC_SC_m, 
                       __ZNSt3__16vectorINS_12basic_stringIcNS_11char_traitsIcEENS_9allocatorIcEEEENS4_IS6_EEE21__push_back_slow_pathIRKS6_EEvOT_, 
                       __ZNSt3__16vectorINS_12basic_stringIcNS_11char_traitsIcEENS_9allocatorIcEEEENS4_IS6_EEE21__push_back_slow_pathIS6_EEvOT_, 
                       __ZNSt3__16vectorINS_12basic_stringIcNS_11char_traitsIcEENS_9allocatorIcEEEENS4_IS6_EEE22__construct_one_at_endB6v15006IJRKS6_EEEvDpOT_, 
                       __ZNSt3__16vectorINS_12basic_stringIcNS_11char_traitsIcEENS_9allocatorIcEEEENS4_IS6_EEE22__construct_one_at_endB6v15006IJS6_EEEvDpOT_, 
                       __ZNSt3__16vectorINS_12basic_stringIcNS_11char_traitsIcEENS_9allocatorIcEEEENS4_IS6_EEE26__swap_out_circular_bufferERNS_14__split_bufferIS6_RS7_EE, 
                       __ZNSt3__16vectorINS_12basic_stringIcNS_11char_traitsIcEENS_9allocatorIcEEEENS4_IS6_EEE6assignIPS6_EENS_9enable_ifIXaasr27__is_cpp17_forward_iteratorIT_EE5valuesr16is_constructibleIS6_NS_15iterator_traitsISC_E9referenceEEE5valueEvE4typeESC_SC_, 
                       __ZNSt3__16vectorINS_12basic_stringIcNS_11char_traitsIcEENS_9allocatorIcEEEENS4_IS6_EEE7reserveEm, 
                       __ZNSt3__16vectorIPKcNS_9allocatorIS2_EEE21__push_back_slow_pathIS2_EEvOT_, 
                       __ZNSt3__16vectorIPKcNS_9allocatorIS2_EEE22__construct_one_at_endB6v15006IJS2_EEEvDpOT_, 
                       __ZNSt3__16vectorIPKcNS_9allocatorIS2_EEE26__swap_out_circular_bufferERNS_14__split_bufferIS2_RS4_EE, 
                       __ZNSt3__16vectorIPKcNS_9allocatorIS2_EEE7reserveEm, __ZNSt3__16vectorIcNS_9allocatorIcEEE18__construct_at_endEm, 
                       __ZNSt3__16vectorIhNS_9allocatorIhEEE21__push_back_slow_pathIhEEvOT_, 
                       __ZNSt3__16vectorIhNS_9allocatorIhEEE22__construct_one_at_endB6v15006IJhEEEvDpOT_, 
                       __ZNSt3__16vectorIhNS_9allocatorIhEEE26__swap_out_circular_bufferERNS_14__split_bufferIhRS2_EE, 
                       __ZNSt3__19allocatorIN4base13ScopedGenericINS1_8FilePathEN8crashpad22ScopedRemoveFileTraitsEEEE9constructB6v15006IS6_JS6_EEEvPT_DpOT0_, 
                       __ZNSt3__19allocatorIN4base8FilePathEE9constructB6v15006IS2_JRKS2_EEEvPT_DpOT0_, 
                       __ZNSt3__19allocatorIN4base8FilePathEE9constructB6v15006IS2_JRPcEEEvPT_DpOT0_, 
                       __ZNSt3__19allocatorIN4base8FilePathEE9constructB6v15006IS2_JRS2_EEEvPT_DpOT0_, 
                       __ZNSt3__19allocatorIN4base8FilePathEE9constructB6v15006IS2_JS2_EEEvPT_DpOT0_, 
                       __ZNSt3__19allocatorIN8crashpad14ExceptionPorts16ExceptionHandlerEE9constructB6v15006IS3_JRKS3_EEEvPT_DpOT0_, 
                       __ZNSt3__19allocatorIN8crashpad19CrashReportDatabase6ReportEE9constructB6v15006IS3_JRKS3_EEEvPT_DpOT0_, 
                       __ZNSt3__19allocatorIN8crashpad19CrashReportDatabase6ReportEE9constructB6v15006IS3_JRS3_EEEvPT_DpOT0_, 
                       __ZNSt3__19allocatorIN8crashpad19CrashReportDatabase6ReportEE9constructB6v15006IS3_JS3_EEEvPT_DpOT0_, 
                       __ZNSt3__19allocatorINS_10unique_ptrIN8crashpad10FileReaderENS_14default_deleteIS3_EEEEE9constructB6v15006IS6_JS6_EEEvPT_DpOT0_, 
                       __ZNSt3__19allocatorINS_10unique_ptrIN8crashpad10FileWriterENS_14default_deleteIS3_EEEEE9constructB6v15006IS6_JS6_EEEvPT_DpOT0_, 
                       __ZNSt3__19allocatorINS_11__tree_nodeINS_12__value_typeINS_12basic_stringIcNS_11char_traitsIcEENS0_IcEEEEPN8crashpad10FileReaderEEEPvEEE9constructB6v15006INS_4pairIKS7_SA_EEJRKNS_21piecewise_construct_tENS_5tupleIJRSH_EEENSM_IJEEEEEEvPT_DpOT0_, 
                       __ZNSt3__19allocatorINS_11__tree_nodeINS_12__value_typeINS_12basic_stringIcNS_11char_traitsIcEENS0_IcEEEES7_EEPvEEE9constructB6v15006INS_4pairIKS7_S7_EEJRKSF_EEEvPT_DpOT0_, 
                       __ZNSt3__19allocatorINS_11__tree_nodeIiPvEEE9constructB6v15006IiJRKiEEEvPT_DpOT0_, 
                       __ZNSt3__19allocatorINS_12basic_stringIcNS_11char_traitsIcEENS0_IcEEEEE9constructB6v15006IS5_JRKS5_EEEvPT_DpOT0_, 
                       __ZNSt3__19allocatorINS_12basic_stringIcNS_11char_traitsIcEENS0_IcEEEEE9constructB6v15006IS5_JRS5_EEEvPT_DpOT0_, 
                       __ZNSt3__19allocatorINS_12basic_stringIcNS_11char_traitsIcEENS0_IcEEEEE9constructB6v15006IS5_JS5_EEEvPT_DpOT0_, 
                       __ZNSt3__19allocatorIPKcE9constructB6v15006IS2_JS2_EEEvPT_DpOT0_, 
                       __ZNSt3__19allocatorIcE9constructB6v15006IcJEEEvPT_DpOT0_, 
                       __ZNSt3__19allocatorIhE9constructB6v15006IhJhEEEvPT_DpOT0_, 
                       __ZNSt3__1lsB6v15006INS_11char_traitsIcEEEERNS_13basic_ostreamIcT_EES6_RKNS_8__iom_t4IcEE, 
                       __ZNSt3__1lsINS_11char_traitsIcEEEERNS_13basic_ostreamIcT_EES6_PKc, 
                       __ZNSt3__1lsINS_11char_traitsIcEEEERNS_13basic_ostreamIcT_EES6_c, 
                       __ZNSt3__1lsINS_11char_traitsIcEEEERNS_13basic_ostreamIcT_EES6_h, 
                       __ZNSt3__1lsIcNS_11char_traitsIcEENS_9allocatorIcEEEERNS_13basic_ostreamIT_T0_EES9_RKNS_12basic_stringIS6_S7_T1_EE, 
                       __ZNSt3__1plIcNS_11char_traitsIcEENS_9allocatorIcEEEENS_12basic_stringIT_T0_T1_EERKS9_S6_, 
                       __ZNSt3__1plIcNS_11char_traitsIcEENS_9allocatorIcEEEENS_12basic_stringIT_T0_T1_EERKS9_SB_, 
                       __ZZN8crashpad22CrashReportDatabaseMac16SettingsInternalEvENKUlvE_clEv ]
  - targets:         [ arm64-macos ]
    symbols:         [ __ZN4base13StringAppendVEPNSt3__112basic_stringIcNS0_11char_traitsIcEENS0_9allocatorIcEEEEPKcPc ]
    weak-symbols:    [ __ZN4base9vsnprintfEPcmPKcS0_ ]
...
